

Microchip Technology PIC LITE Macro Assembler V1.45 build -152302408 
                                                                                               Tue Oct 15 15:30:49 2019

Microchip Technology Omniscient Code Generator v1.45 (Free mode) build 201711160504
     1                           	processor	16F15324
     2                           	opt	pw 120
     3                           	opt	lm
     4                           	psect	idataCOMMON,global,class=CODE,delta=2
     5                           	psect	idataBANK0,global,class=CODE,delta=2
     6                           	psect	nvCOMMON,global,class=COMMON,space=1,delta=1
     7                           	psect	nvBANK0,global,class=BANK0,space=1,delta=1
     8                           	psect	cinit,global,class=CODE,merge=1,delta=2
     9                           	psect	bssCOMMON,global,class=COMMON,space=1,delta=1
    10                           	psect	dataCOMMON,global,class=COMMON,space=1,delta=1
    11                           	psect	bssBANK0,global,class=BANK0,space=1,delta=1
    12                           	psect	dataBANK0,global,class=BANK0,space=1,delta=1
    13                           	psect	inittext,global,class=CODE,delta=2
    14                           	psect	cstackCOMMON,global,class=COMMON,space=1,delta=1
    15                           	psect	cstackBANK0,global,class=BANK0,space=1,delta=1
    16                           	psect	maintext,global,class=CODE,merge=1,split=1,delta=2
    17                           	psect	text1,local,class=CODE,merge=1,delta=2,group=1
    18                           	psect	text2,local,class=CODE,merge=1,delta=2
    19                           	psect	text3,local,class=CODE,merge=1,delta=2
    20                           	psect	text4,local,class=CODE,merge=1,delta=2
    21                           	psect	text5,local,class=CODE,merge=1,delta=2
    22                           	psect	text6,local,class=CODE,merge=1,delta=2
    23                           	psect	text7,local,class=CODE,merge=1,delta=2
    24                           	psect	text8,local,class=CODE,merge=1,delta=2
    25                           	psect	text9,local,class=CODE,merge=1,delta=2
    26                           	psect	text10,local,class=CODE,merge=1,delta=2
    27                           	psect	text11,local,class=CODE,merge=1,delta=2
    28                           	psect	text12,local,class=CODE,merge=1,delta=2
    29                           	psect	text13,local,class=CODE,merge=1,delta=2
    30                           	psect	text14,local,class=CODE,merge=1,delta=2
    31                           	psect	intentry,global,class=CODE,delta=2
    32                           	psect	text16,local,class=CODE,merge=1,delta=2
    33                           	psect	text17,local,class=CODE,merge=1,delta=2
    34                           	psect	text18,local,class=CODE,merge=1,delta=2
    35                           	psect	text19,local,class=CODE,merge=1,delta=2
    36                           	psect	text20,local,class=CODE,merge=1,delta=2
    37                           	psect	text21,local,class=CODE,merge=1,delta=2
    38                           	dabs	1,0x7E,2
    39  0000                     
    40                           ; Version 1.45
    41                           ; Generated 16/11/2017 GMT
    42                           ; 
    43                           ; Copyright © 2017, Microchip Technology Inc. and its subsidiaries ("Microchip")
    44                           ; All rights reserved.
    45                           ; 
    46                           ; This software is developed by Microchip Technology Inc. and its subsidiaries ("Microch
      +                          ip").
    47                           ; 
    48                           ; Redistribution and use in source and binary forms, with or without modification, are
    49                           ; permitted provided that the following conditions are met:
    50                           ; 
    51                           ;     1. Redistributions of source code must retain the above copyright notice, this lis
      +                          t of
    52                           ;        conditions and the following disclaimer.
    53                           ; 
    54                           ;     2. Redistributions in binary form must reproduce the above copyright notice, this 
      +                          list
    55                           ;        of conditions and the following disclaimer in the documentation and/or other
    56                           ;        materials provided with the distribution.
    57                           ; 
    58                           ;     3. Microchip's name may not be used to endorse or promote products derived from th
      +                          is
    59                           ;        software without specific prior written permission.
    60                           ; 
    61                           ; THIS SOFTWARE IS PROVIDED BY MICROCHIP "AS IS" AND ANY EXPRESS OR IMPLIED WARRANTIES,
    62                           ; INCLUDING, BUT NOT LIMITED TO, THE IMPLIED WARRANTIES OF MERCHANTABILITY AND FITNESS F
      +                          OR
    63                           ; PURPOSE ARE DISCLAIMED.  IN NO EVENT SHALL MICROCHIP BE LIABLE FOR ANY DIRECT, INDIREC
      +                          T,
    64                           ; INCIDENTAL, SPECIAL, EXEMPLARY, OR CONSEQUENTIAL DAMAGES (INCLUDING BUT NOT LIMITED TO
    65                           ; PROCUREMENT OF SUBSTITUTE GOODS OR SERVICES; LOSS OF USE, DATA OR PROFITS; OR BUSINESS
    66                           ; INTERRUPTION) HOWSOEVER CAUSED AND ON ANY THEORY OF LIABILITY, WHETHER IN CONTRACT, ST
      +                          RICT
    67                           ; LIABILITY, OR TORT (INCLUDING NEGLIGENCE OR OTHERWISE) ARISING IN ANY WAY OUT OF THE U
      +                          SE OF
    68                           ; THIS SOFTWARE, EVEN IF ADVISED OF THE POSSIBILITY OF SUCH DAMAGE.
    69                           ; 
    70                           ; 
    71                           ; Code-generator required, PIC16F15324 Definitions
    72                           ; 
    73                           ; SFR Addresses
    74  0000                     	;# 
    75  0001                     	;# 
    76  0002                     	;# 
    77  0003                     	;# 
    78  0004                     	;# 
    79  0005                     	;# 
    80  0006                     	;# 
    81  0007                     	;# 
    82  0008                     	;# 
    83  0009                     	;# 
    84  000A                     	;# 
    85  000B                     	;# 
    86  000C                     	;# 
    87  000E                     	;# 
    88  0012                     	;# 
    89  0014                     	;# 
    90  0018                     	;# 
    91  001A                     	;# 
    92  009B                     	;# 
    93  009B                     	;# 
    94  009C                     	;# 
    95  009D                     	;# 
    96  009E                     	;# 
    97  009F                     	;# 
    98  0119                     	;# 
    99  0119                     	;# 
   100  0119                     	;# 
   101  011A                     	;# 
   102  011A                     	;# 
   103  011A                     	;# 
   104  011B                     	;# 
   105  011B                     	;# 
   106  011B                     	;# 
   107  011B                     	;# 
   108  011B                     	;# 
   109  011C                     	;# 
   110  011C                     	;# 
   111  011C                     	;# 
   112  011D                     	;# 
   113  011D                     	;# 
   114  011D                     	;# 
   115  011E                     	;# 
   116  011E                     	;# 
   117  011E                     	;# 
   118  011F                     	;# 
   119  011F                     	;# 
   120  011F                     	;# 
   121  011F                     	;# 
   122  011F                     	;# 
   123  018C                     	;# 
   124  018D                     	;# 
   125  018E                     	;# 
   126  018F                     	;# 
   127  0190                     	;# 
   128  0191                     	;# 
   129  0192                     	;# 
   130  020C                     	;# 
   131  020C                     	;# 
   132  020D                     	;# 
   133  020E                     	;# 
   134  020F                     	;# 
   135  020F                     	;# 
   136  0210                     	;# 
   137  0210                     	;# 
   138  0211                     	;# 
   139  0211                     	;# 
   140  028C                     	;# 
   141  028C                     	;# 
   142  028D                     	;# 
   143  028D                     	;# 
   144  028E                     	;# 
   145  028F                     	;# 
   146  0290                     	;# 
   147  0291                     	;# 
   148  030C                     	;# 
   149  030C                     	;# 
   150  030D                     	;# 
   151  030E                     	;# 
   152  030F                     	;# 
   153  0310                     	;# 
   154  0310                     	;# 
   155  0311                     	;# 
   156  0312                     	;# 
   157  0313                     	;# 
   158  0314                     	;# 
   159  0315                     	;# 
   160  0316                     	;# 
   161  0318                     	;# 
   162  0319                     	;# 
   163  031A                     	;# 
   164  031C                     	;# 
   165  031D                     	;# 
   166  031E                     	;# 
   167  038C                     	;# 
   168  038D                     	;# 
   169  038E                     	;# 
   170  058C                     	;# 
   171  058C                     	;# 
   172  058D                     	;# 
   173  058E                     	;# 
   174  058F                     	;# 
   175  058F                     	;# 
   176  0590                     	;# 
   177  0591                     	;# 
   178  0592                     	;# 
   179  0593                     	;# 
   180  059C                     	;# 
   181  059C                     	;# 
   182  059D                     	;# 
   183  059D                     	;# 
   184  059E                     	;# 
   185  059F                     	;# 
   186  060C                     	;# 
   187  060D                     	;# 
   188  060E                     	;# 
   189  060F                     	;# 
   190  0610                     	;# 
   191  0611                     	;# 
   192  0612                     	;# 
   193  0613                     	;# 
   194  0614                     	;# 
   195  070C                     	;# 
   196  070D                     	;# 
   197  070E                     	;# 
   198  070F                     	;# 
   199  0710                     	;# 
   200  0711                     	;# 
   201  0712                     	;# 
   202  0713                     	;# 
   203  0716                     	;# 
   204  0717                     	;# 
   205  0718                     	;# 
   206  0719                     	;# 
   207  071A                     	;# 
   208  071B                     	;# 
   209  071C                     	;# 
   210  071D                     	;# 
   211  0796                     	;# 
   212  0797                     	;# 
   213  0798                     	;# 
   214  0799                     	;# 
   215  079A                     	;# 
   216  079B                     	;# 
   217  080C                     	;# 
   218  080D                     	;# 
   219  080E                     	;# 
   220  080F                     	;# 
   221  0810                     	;# 
   222  0811                     	;# 
   223  0812                     	;# 
   224  0813                     	;# 
   225  0814                     	;# 
   226  081A                     	;# 
   227  081A                     	;# 
   228  081B                     	;# 
   229  081C                     	;# 
   230  081C                     	;# 
   231  081D                     	;# 
   232  081E                     	;# 
   233  081F                     	;# 
   234  088C                     	;# 
   235  088D                     	;# 
   236  088E                     	;# 
   237  088F                     	;# 
   238  0890                     	;# 
   239  0891                     	;# 
   240  0892                     	;# 
   241  0893                     	;# 
   242  0895                     	;# 
   243  0896                     	;# 
   244  090C                     	;# 
   245  090E                     	;# 
   246  090F                     	;# 
   247  091F                     	;# 
   248  098F                     	;# 
   249  098F                     	;# 
   250  0990                     	;# 
   251  0991                     	;# 
   252  0992                     	;# 
   253  0993                     	;# 
   254  0994                     	;# 
   255  0995                     	;# 
   256  0996                     	;# 
   257  0997                     	;# 
   258  0A19                     	;# 
   259  0A19                     	;# 
   260  0A1A                     	;# 
   261  0A1A                     	;# 
   262  0A1B                     	;# 
   263  0A1B                     	;# 
   264  0A1B                     	;# 
   265  0A1C                     	;# 
   266  0A1C                     	;# 
   267  0A1D                     	;# 
   268  0A1D                     	;# 
   269  0A1E                     	;# 
   270  0A1E                     	;# 
   271  0A1F                     	;# 
   272  0A1F                     	;# 
   273  0A1F                     	;# 
   274  1E0F                     	;# 
   275  1E10                     	;# 
   276  1E11                     	;# 
   277  1E12                     	;# 
   278  1E13                     	;# 
   279  1E14                     	;# 
   280  1E15                     	;# 
   281  1E16                     	;# 
   282  1E17                     	;# 
   283  1E18                     	;# 
   284  1E19                     	;# 
   285  1E1A                     	;# 
   286  1E1B                     	;# 
   287  1E1C                     	;# 
   288  1E1D                     	;# 
   289  1E1E                     	;# 
   290  1E1F                     	;# 
   291  1E20                     	;# 
   292  1E21                     	;# 
   293  1E22                     	;# 
   294  1E23                     	;# 
   295  1E24                     	;# 
   296  1E25                     	;# 
   297  1E26                     	;# 
   298  1E27                     	;# 
   299  1E28                     	;# 
   300  1E29                     	;# 
   301  1E2A                     	;# 
   302  1E2B                     	;# 
   303  1E2C                     	;# 
   304  1E2D                     	;# 
   305  1E2E                     	;# 
   306  1E2F                     	;# 
   307  1E30                     	;# 
   308  1E31                     	;# 
   309  1E32                     	;# 
   310  1E33                     	;# 
   311  1E34                     	;# 
   312  1E35                     	;# 
   313  1E36                     	;# 
   314  1E37                     	;# 
   315  1E8F                     	;# 
   316  1E90                     	;# 
   317  1E91                     	;# 
   318  1E92                     	;# 
   319  1E93                     	;# 
   320  1E9C                     	;# 
   321  1EA1                     	;# 
   322  1EA2                     	;# 
   323  1EB1                     	;# 
   324  1EBB                     	;# 
   325  1EBC                     	;# 
   326  1EBD                     	;# 
   327  1EBE                     	;# 
   328  1EC3                     	;# 
   329  1EC5                     	;# 
   330  1EC6                     	;# 
   331  1EC7                     	;# 
   332  1ECB                     	;# 
   333  1ECC                     	;# 
   334  1ECD                     	;# 
   335  1ECE                     	;# 
   336  1F10                     	;# 
   337  1F11                     	;# 
   338  1F12                     	;# 
   339  1F13                     	;# 
   340  1F14                     	;# 
   341  1F15                     	;# 
   342  1F20                     	;# 
   343  1F21                     	;# 
   344  1F22                     	;# 
   345  1F23                     	;# 
   346  1F24                     	;# 
   347  1F25                     	;# 
   348  1F38                     	;# 
   349  1F39                     	;# 
   350  1F3A                     	;# 
   351  1F3B                     	;# 
   352  1F3C                     	;# 
   353  1F3D                     	;# 
   354  1F3E                     	;# 
   355  1F3F                     	;# 
   356  1F4E                     	;# 
   357  1F4F                     	;# 
   358  1F50                     	;# 
   359  1F51                     	;# 
   360  1F52                     	;# 
   361  1F53                     	;# 
   362  1F54                     	;# 
   363  1F55                     	;# 
   364  1FE4                     	;# 
   365  1FE5                     	;# 
   366  1FE6                     	;# 
   367  1FE7                     	;# 
   368  1FE8                     	;# 
   369  1FE8                     	;# 
   370  1FE9                     	;# 
   371  1FEA                     	;# 
   372  1FEA                     	;# 
   373  1FEB                     	;# 
   374  1FED                     	;# 
   375  1FEE                     	;# 
   376  1FEF                     	;# 
   377  0000                     	;# 
   378  0001                     	;# 
   379  0002                     	;# 
   380  0003                     	;# 
   381  0004                     	;# 
   382  0005                     	;# 
   383  0006                     	;# 
   384  0007                     	;# 
   385  0008                     	;# 
   386  0009                     	;# 
   387  000A                     	;# 
   388  000B                     	;# 
   389  000C                     	;# 
   390  000E                     	;# 
   391  0012                     	;# 
   392  0014                     	;# 
   393  0018                     	;# 
   394  001A                     	;# 
   395  009B                     	;# 
   396  009B                     	;# 
   397  009C                     	;# 
   398  009D                     	;# 
   399  009E                     	;# 
   400  009F                     	;# 
   401  0119                     	;# 
   402  0119                     	;# 
   403  0119                     	;# 
   404  011A                     	;# 
   405  011A                     	;# 
   406  011A                     	;# 
   407  011B                     	;# 
   408  011B                     	;# 
   409  011B                     	;# 
   410  011B                     	;# 
   411  011B                     	;# 
   412  011C                     	;# 
   413  011C                     	;# 
   414  011C                     	;# 
   415  011D                     	;# 
   416  011D                     	;# 
   417  011D                     	;# 
   418  011E                     	;# 
   419  011E                     	;# 
   420  011E                     	;# 
   421  011F                     	;# 
   422  011F                     	;# 
   423  011F                     	;# 
   424  011F                     	;# 
   425  011F                     	;# 
   426  018C                     	;# 
   427  018D                     	;# 
   428  018E                     	;# 
   429  018F                     	;# 
   430  0190                     	;# 
   431  0191                     	;# 
   432  0192                     	;# 
   433  020C                     	;# 
   434  020C                     	;# 
   435  020D                     	;# 
   436  020E                     	;# 
   437  020F                     	;# 
   438  020F                     	;# 
   439  0210                     	;# 
   440  0210                     	;# 
   441  0211                     	;# 
   442  0211                     	;# 
   443  028C                     	;# 
   444  028C                     	;# 
   445  028D                     	;# 
   446  028D                     	;# 
   447  028E                     	;# 
   448  028F                     	;# 
   449  0290                     	;# 
   450  0291                     	;# 
   451  030C                     	;# 
   452  030C                     	;# 
   453  030D                     	;# 
   454  030E                     	;# 
   455  030F                     	;# 
   456  0310                     	;# 
   457  0310                     	;# 
   458  0311                     	;# 
   459  0312                     	;# 
   460  0313                     	;# 
   461  0314                     	;# 
   462  0315                     	;# 
   463  0316                     	;# 
   464  0318                     	;# 
   465  0319                     	;# 
   466  031A                     	;# 
   467  031C                     	;# 
   468  031D                     	;# 
   469  031E                     	;# 
   470  038C                     	;# 
   471  038D                     	;# 
   472  038E                     	;# 
   473  058C                     	;# 
   474  058C                     	;# 
   475  058D                     	;# 
   476  058E                     	;# 
   477  058F                     	;# 
   478  058F                     	;# 
   479  0590                     	;# 
   480  0591                     	;# 
   481  0592                     	;# 
   482  0593                     	;# 
   483  059C                     	;# 
   484  059C                     	;# 
   485  059D                     	;# 
   486  059D                     	;# 
   487  059E                     	;# 
   488  059F                     	;# 
   489  060C                     	;# 
   490  060D                     	;# 
   491  060E                     	;# 
   492  060F                     	;# 
   493  0610                     	;# 
   494  0611                     	;# 
   495  0612                     	;# 
   496  0613                     	;# 
   497  0614                     	;# 
   498  070C                     	;# 
   499  070D                     	;# 
   500  070E                     	;# 
   501  070F                     	;# 
   502  0710                     	;# 
   503  0711                     	;# 
   504  0712                     	;# 
   505  0713                     	;# 
   506  0716                     	;# 
   507  0717                     	;# 
   508  0718                     	;# 
   509  0719                     	;# 
   510  071A                     	;# 
   511  071B                     	;# 
   512  071C                     	;# 
   513  071D                     	;# 
   514  0796                     	;# 
   515  0797                     	;# 
   516  0798                     	;# 
   517  0799                     	;# 
   518  079A                     	;# 
   519  079B                     	;# 
   520  080C                     	;# 
   521  080D                     	;# 
   522  080E                     	;# 
   523  080F                     	;# 
   524  0810                     	;# 
   525  0811                     	;# 
   526  0812                     	;# 
   527  0813                     	;# 
   528  0814                     	;# 
   529  081A                     	;# 
   530  081A                     	;# 
   531  081B                     	;# 
   532  081C                     	;# 
   533  081C                     	;# 
   534  081D                     	;# 
   535  081E                     	;# 
   536  081F                     	;# 
   537  088C                     	;# 
   538  088D                     	;# 
   539  088E                     	;# 
   540  088F                     	;# 
   541  0890                     	;# 
   542  0891                     	;# 
   543  0892                     	;# 
   544  0893                     	;# 
   545  0895                     	;# 
   546  0896                     	;# 
   547  090C                     	;# 
   548  090E                     	;# 
   549  090F                     	;# 
   550  091F                     	;# 
   551  098F                     	;# 
   552  098F                     	;# 
   553  0990                     	;# 
   554  0991                     	;# 
   555  0992                     	;# 
   556  0993                     	;# 
   557  0994                     	;# 
   558  0995                     	;# 
   559  0996                     	;# 
   560  0997                     	;# 
   561  0A19                     	;# 
   562  0A19                     	;# 
   563  0A1A                     	;# 
   564  0A1A                     	;# 
   565  0A1B                     	;# 
   566  0A1B                     	;# 
   567  0A1B                     	;# 
   568  0A1C                     	;# 
   569  0A1C                     	;# 
   570  0A1D                     	;# 
   571  0A1D                     	;# 
   572  0A1E                     	;# 
   573  0A1E                     	;# 
   574  0A1F                     	;# 
   575  0A1F                     	;# 
   576  0A1F                     	;# 
   577  1E0F                     	;# 
   578  1E10                     	;# 
   579  1E11                     	;# 
   580  1E12                     	;# 
   581  1E13                     	;# 
   582  1E14                     	;# 
   583  1E15                     	;# 
   584  1E16                     	;# 
   585  1E17                     	;# 
   586  1E18                     	;# 
   587  1E19                     	;# 
   588  1E1A                     	;# 
   589  1E1B                     	;# 
   590  1E1C                     	;# 
   591  1E1D                     	;# 
   592  1E1E                     	;# 
   593  1E1F                     	;# 
   594  1E20                     	;# 
   595  1E21                     	;# 
   596  1E22                     	;# 
   597  1E23                     	;# 
   598  1E24                     	;# 
   599  1E25                     	;# 
   600  1E26                     	;# 
   601  1E27                     	;# 
   602  1E28                     	;# 
   603  1E29                     	;# 
   604  1E2A                     	;# 
   605  1E2B                     	;# 
   606  1E2C                     	;# 
   607  1E2D                     	;# 
   608  1E2E                     	;# 
   609  1E2F                     	;# 
   610  1E30                     	;# 
   611  1E31                     	;# 
   612  1E32                     	;# 
   613  1E33                     	;# 
   614  1E34                     	;# 
   615  1E35                     	;# 
   616  1E36                     	;# 
   617  1E37                     	;# 
   618  1E8F                     	;# 
   619  1E90                     	;# 
   620  1E91                     	;# 
   621  1E92                     	;# 
   622  1E93                     	;# 
   623  1E9C                     	;# 
   624  1EA1                     	;# 
   625  1EA2                     	;# 
   626  1EB1                     	;# 
   627  1EBB                     	;# 
   628  1EBC                     	;# 
   629  1EBD                     	;# 
   630  1EBE                     	;# 
   631  1EC3                     	;# 
   632  1EC5                     	;# 
   633  1EC6                     	;# 
   634  1EC7                     	;# 
   635  1ECB                     	;# 
   636  1ECC                     	;# 
   637  1ECD                     	;# 
   638  1ECE                     	;# 
   639  1F10                     	;# 
   640  1F11                     	;# 
   641  1F12                     	;# 
   642  1F13                     	;# 
   643  1F14                     	;# 
   644  1F15                     	;# 
   645  1F20                     	;# 
   646  1F21                     	;# 
   647  1F22                     	;# 
   648  1F23                     	;# 
   649  1F24                     	;# 
   650  1F25                     	;# 
   651  1F38                     	;# 
   652  1F39                     	;# 
   653  1F3A                     	;# 
   654  1F3B                     	;# 
   655  1F3C                     	;# 
   656  1F3D                     	;# 
   657  1F3E                     	;# 
   658  1F3F                     	;# 
   659  1F4E                     	;# 
   660  1F4F                     	;# 
   661  1F50                     	;# 
   662  1F51                     	;# 
   663  1F52                     	;# 
   664  1F53                     	;# 
   665  1F54                     	;# 
   666  1F55                     	;# 
   667  1FE4                     	;# 
   668  1FE5                     	;# 
   669  1FE6                     	;# 
   670  1FE7                     	;# 
   671  1FE8                     	;# 
   672  1FE8                     	;# 
   673  1FE9                     	;# 
   674  1FEA                     	;# 
   675  1FEA                     	;# 
   676  1FEB                     	;# 
   677  1FED                     	;# 
   678  1FEE                     	;# 
   679  1FEF                     	;# 
   680  0000                     	;# 
   681  0001                     	;# 
   682  0002                     	;# 
   683  0003                     	;# 
   684  0004                     	;# 
   685  0005                     	;# 
   686  0006                     	;# 
   687  0007                     	;# 
   688  0008                     	;# 
   689  0009                     	;# 
   690  000A                     	;# 
   691  000B                     	;# 
   692  000C                     	;# 
   693  000E                     	;# 
   694  0012                     	;# 
   695  0014                     	;# 
   696  0018                     	;# 
   697  001A                     	;# 
   698  009B                     	;# 
   699  009B                     	;# 
   700  009C                     	;# 
   701  009D                     	;# 
   702  009E                     	;# 
   703  009F                     	;# 
   704  0119                     	;# 
   705  0119                     	;# 
   706  0119                     	;# 
   707  011A                     	;# 
   708  011A                     	;# 
   709  011A                     	;# 
   710  011B                     	;# 
   711  011B                     	;# 
   712  011B                     	;# 
   713  011B                     	;# 
   714  011B                     	;# 
   715  011C                     	;# 
   716  011C                     	;# 
   717  011C                     	;# 
   718  011D                     	;# 
   719  011D                     	;# 
   720  011D                     	;# 
   721  011E                     	;# 
   722  011E                     	;# 
   723  011E                     	;# 
   724  011F                     	;# 
   725  011F                     	;# 
   726  011F                     	;# 
   727  011F                     	;# 
   728  011F                     	;# 
   729  018C                     	;# 
   730  018D                     	;# 
   731  018E                     	;# 
   732  018F                     	;# 
   733  0190                     	;# 
   734  0191                     	;# 
   735  0192                     	;# 
   736  020C                     	;# 
   737  020C                     	;# 
   738  020D                     	;# 
   739  020E                     	;# 
   740  020F                     	;# 
   741  020F                     	;# 
   742  0210                     	;# 
   743  0210                     	;# 
   744  0211                     	;# 
   745  0211                     	;# 
   746  028C                     	;# 
   747  028C                     	;# 
   748  028D                     	;# 
   749  028D                     	;# 
   750  028E                     	;# 
   751  028F                     	;# 
   752  0290                     	;# 
   753  0291                     	;# 
   754  030C                     	;# 
   755  030C                     	;# 
   756  030D                     	;# 
   757  030E                     	;# 
   758  030F                     	;# 
   759  0310                     	;# 
   760  0310                     	;# 
   761  0311                     	;# 
   762  0312                     	;# 
   763  0313                     	;# 
   764  0314                     	;# 
   765  0315                     	;# 
   766  0316                     	;# 
   767  0318                     	;# 
   768  0319                     	;# 
   769  031A                     	;# 
   770  031C                     	;# 
   771  031D                     	;# 
   772  031E                     	;# 
   773  038C                     	;# 
   774  038D                     	;# 
   775  038E                     	;# 
   776  058C                     	;# 
   777  058C                     	;# 
   778  058D                     	;# 
   779  058E                     	;# 
   780  058F                     	;# 
   781  058F                     	;# 
   782  0590                     	;# 
   783  0591                     	;# 
   784  0592                     	;# 
   785  0593                     	;# 
   786  059C                     	;# 
   787  059C                     	;# 
   788  059D                     	;# 
   789  059D                     	;# 
   790  059E                     	;# 
   791  059F                     	;# 
   792  060C                     	;# 
   793  060D                     	;# 
   794  060E                     	;# 
   795  060F                     	;# 
   796  0610                     	;# 
   797  0611                     	;# 
   798  0612                     	;# 
   799  0613                     	;# 
   800  0614                     	;# 
   801  070C                     	;# 
   802  070D                     	;# 
   803  070E                     	;# 
   804  070F                     	;# 
   805  0710                     	;# 
   806  0711                     	;# 
   807  0712                     	;# 
   808  0713                     	;# 
   809  0716                     	;# 
   810  0717                     	;# 
   811  0718                     	;# 
   812  0719                     	;# 
   813  071A                     	;# 
   814  071B                     	;# 
   815  071C                     	;# 
   816  071D                     	;# 
   817  0796                     	;# 
   818  0797                     	;# 
   819  0798                     	;# 
   820  0799                     	;# 
   821  079A                     	;# 
   822  079B                     	;# 
   823  080C                     	;# 
   824  080D                     	;# 
   825  080E                     	;# 
   826  080F                     	;# 
   827  0810                     	;# 
   828  0811                     	;# 
   829  0812                     	;# 
   830  0813                     	;# 
   831  0814                     	;# 
   832  081A                     	;# 
   833  081A                     	;# 
   834  081B                     	;# 
   835  081C                     	;# 
   836  081C                     	;# 
   837  081D                     	;# 
   838  081E                     	;# 
   839  081F                     	;# 
   840  088C                     	;# 
   841  088D                     	;# 
   842  088E                     	;# 
   843  088F                     	;# 
   844  0890                     	;# 
   845  0891                     	;# 
   846  0892                     	;# 
   847  0893                     	;# 
   848  0895                     	;# 
   849  0896                     	;# 
   850  090C                     	;# 
   851  090E                     	;# 
   852  090F                     	;# 
   853  091F                     	;# 
   854  098F                     	;# 
   855  098F                     	;# 
   856  0990                     	;# 
   857  0991                     	;# 
   858  0992                     	;# 
   859  0993                     	;# 
   860  0994                     	;# 
   861  0995                     	;# 
   862  0996                     	;# 
   863  0997                     	;# 
   864  0A19                     	;# 
   865  0A19                     	;# 
   866  0A1A                     	;# 
   867  0A1A                     	;# 
   868  0A1B                     	;# 
   869  0A1B                     	;# 
   870  0A1B                     	;# 
   871  0A1C                     	;# 
   872  0A1C                     	;# 
   873  0A1D                     	;# 
   874  0A1D                     	;# 
   875  0A1E                     	;# 
   876  0A1E                     	;# 
   877  0A1F                     	;# 
   878  0A1F                     	;# 
   879  0A1F                     	;# 
   880  1E0F                     	;# 
   881  1E10                     	;# 
   882  1E11                     	;# 
   883  1E12                     	;# 
   884  1E13                     	;# 
   885  1E14                     	;# 
   886  1E15                     	;# 
   887  1E16                     	;# 
   888  1E17                     	;# 
   889  1E18                     	;# 
   890  1E19                     	;# 
   891  1E1A                     	;# 
   892  1E1B                     	;# 
   893  1E1C                     	;# 
   894  1E1D                     	;# 
   895  1E1E                     	;# 
   896  1E1F                     	;# 
   897  1E20                     	;# 
   898  1E21                     	;# 
   899  1E22                     	;# 
   900  1E23                     	;# 
   901  1E24                     	;# 
   902  1E25                     	;# 
   903  1E26                     	;# 
   904  1E27                     	;# 
   905  1E28                     	;# 
   906  1E29                     	;# 
   907  1E2A                     	;# 
   908  1E2B                     	;# 
   909  1E2C                     	;# 
   910  1E2D                     	;# 
   911  1E2E                     	;# 
   912  1E2F                     	;# 
   913  1E30                     	;# 
   914  1E31                     	;# 
   915  1E32                     	;# 
   916  1E33                     	;# 
   917  1E34                     	;# 
   918  1E35                     	;# 
   919  1E36                     	;# 
   920  1E37                     	;# 
   921  1E8F                     	;# 
   922  1E90                     	;# 
   923  1E91                     	;# 
   924  1E92                     	;# 
   925  1E93                     	;# 
   926  1E9C                     	;# 
   927  1EA1                     	;# 
   928  1EA2                     	;# 
   929  1EB1                     	;# 
   930  1EBB                     	;# 
   931  1EBC                     	;# 
   932  1EBD                     	;# 
   933  1EBE                     	;# 
   934  1EC3                     	;# 
   935  1EC5                     	;# 
   936  1EC6                     	;# 
   937  1EC7                     	;# 
   938  1ECB                     	;# 
   939  1ECC                     	;# 
   940  1ECD                     	;# 
   941  1ECE                     	;# 
   942  1F10                     	;# 
   943  1F11                     	;# 
   944  1F12                     	;# 
   945  1F13                     	;# 
   946  1F14                     	;# 
   947  1F15                     	;# 
   948  1F20                     	;# 
   949  1F21                     	;# 
   950  1F22                     	;# 
   951  1F23                     	;# 
   952  1F24                     	;# 
   953  1F25                     	;# 
   954  1F38                     	;# 
   955  1F39                     	;# 
   956  1F3A                     	;# 
   957  1F3B                     	;# 
   958  1F3C                     	;# 
   959  1F3D                     	;# 
   960  1F3E                     	;# 
   961  1F3F                     	;# 
   962  1F4E                     	;# 
   963  1F4F                     	;# 
   964  1F50                     	;# 
   965  1F51                     	;# 
   966  1F52                     	;# 
   967  1F53                     	;# 
   968  1F54                     	;# 
   969  1F55                     	;# 
   970  1FE4                     	;# 
   971  1FE5                     	;# 
   972  1FE6                     	;# 
   973  1FE7                     	;# 
   974  1FE8                     	;# 
   975  1FE8                     	;# 
   976  1FE9                     	;# 
   977  1FEA                     	;# 
   978  1FEA                     	;# 
   979  1FEB                     	;# 
   980  1FED                     	;# 
   981  1FEE                     	;# 
   982  1FEF                     	;# 
   983  0000                     	;# 
   984  0001                     	;# 
   985  0002                     	;# 
   986  0003                     	;# 
   987  0004                     	;# 
   988  0005                     	;# 
   989  0006                     	;# 
   990  0007                     	;# 
   991  0008                     	;# 
   992  0009                     	;# 
   993  000A                     	;# 
   994  000B                     	;# 
   995  000C                     	;# 
   996  000E                     	;# 
   997  0012                     	;# 
   998  0014                     	;# 
   999  0018                     	;# 
  1000  001A                     	;# 
  1001  009B                     	;# 
  1002  009B                     	;# 
  1003  009C                     	;# 
  1004  009D                     	;# 
  1005  009E                     	;# 
  1006  009F                     	;# 
  1007  0119                     	;# 
  1008  0119                     	;# 
  1009  0119                     	;# 
  1010  011A                     	;# 
  1011  011A                     	;# 
  1012  011A                     	;# 
  1013  011B                     	;# 
  1014  011B                     	;# 
  1015  011B                     	;# 
  1016  011B                     	;# 
  1017  011B                     	;# 
  1018  011C                     	;# 
  1019  011C                     	;# 
  1020  011C                     	;# 
  1021  011D                     	;# 
  1022  011D                     	;# 
  1023  011D                     	;# 
  1024  011E                     	;# 
  1025  011E                     	;# 
  1026  011E                     	;# 
  1027  011F                     	;# 
  1028  011F                     	;# 
  1029  011F                     	;# 
  1030  011F                     	;# 
  1031  011F                     	;# 
  1032  018C                     	;# 
  1033  018D                     	;# 
  1034  018E                     	;# 
  1035  018F                     	;# 
  1036  0190                     	;# 
  1037  0191                     	;# 
  1038  0192                     	;# 
  1039  020C                     	;# 
  1040  020C                     	;# 
  1041  020D                     	;# 
  1042  020E                     	;# 
  1043  020F                     	;# 
  1044  020F                     	;# 
  1045  0210                     	;# 
  1046  0210                     	;# 
  1047  0211                     	;# 
  1048  0211                     	;# 
  1049  028C                     	;# 
  1050  028C                     	;# 
  1051  028D                     	;# 
  1052  028D                     	;# 
  1053  028E                     	;# 
  1054  028F                     	;# 
  1055  0290                     	;# 
  1056  0291                     	;# 
  1057  030C                     	;# 
  1058  030C                     	;# 
  1059  030D                     	;# 
  1060  030E                     	;# 
  1061  030F                     	;# 
  1062  0310                     	;# 
  1063  0310                     	;# 
  1064  0311                     	;# 
  1065  0312                     	;# 
  1066  0313                     	;# 
  1067  0314                     	;# 
  1068  0315                     	;# 
  1069  0316                     	;# 
  1070  0318                     	;# 
  1071  0319                     	;# 
  1072  031A                     	;# 
  1073  031C                     	;# 
  1074  031D                     	;# 
  1075  031E                     	;# 
  1076  038C                     	;# 
  1077  038D                     	;# 
  1078  038E                     	;# 
  1079  058C                     	;# 
  1080  058C                     	;# 
  1081  058D                     	;# 
  1082  058E                     	;# 
  1083  058F                     	;# 
  1084  058F                     	;# 
  1085  0590                     	;# 
  1086  0591                     	;# 
  1087  0592                     	;# 
  1088  0593                     	;# 
  1089  059C                     	;# 
  1090  059C                     	;# 
  1091  059D                     	;# 
  1092  059D                     	;# 
  1093  059E                     	;# 
  1094  059F                     	;# 
  1095  060C                     	;# 
  1096  060D                     	;# 
  1097  060E                     	;# 
  1098  060F                     	;# 
  1099  0610                     	;# 
  1100  0611                     	;# 
  1101  0612                     	;# 
  1102  0613                     	;# 
  1103  0614                     	;# 
  1104  070C                     	;# 
  1105  070D                     	;# 
  1106  070E                     	;# 
  1107  070F                     	;# 
  1108  0710                     	;# 
  1109  0711                     	;# 
  1110  0712                     	;# 
  1111  0713                     	;# 
  1112  0716                     	;# 
  1113  0717                     	;# 
  1114  0718                     	;# 
  1115  0719                     	;# 
  1116  071A                     	;# 
  1117  071B                     	;# 
  1118  071C                     	;# 
  1119  071D                     	;# 
  1120  0796                     	;# 
  1121  0797                     	;# 
  1122  0798                     	;# 
  1123  0799                     	;# 
  1124  079A                     	;# 
  1125  079B                     	;# 
  1126  080C                     	;# 
  1127  080D                     	;# 
  1128  080E                     	;# 
  1129  080F                     	;# 
  1130  0810                     	;# 
  1131  0811                     	;# 
  1132  0812                     	;# 
  1133  0813                     	;# 
  1134  0814                     	;# 
  1135  081A                     	;# 
  1136  081A                     	;# 
  1137  081B                     	;# 
  1138  081C                     	;# 
  1139  081C                     	;# 
  1140  081D                     	;# 
  1141  081E                     	;# 
  1142  081F                     	;# 
  1143  088C                     	;# 
  1144  088D                     	;# 
  1145  088E                     	;# 
  1146  088F                     	;# 
  1147  0890                     	;# 
  1148  0891                     	;# 
  1149  0892                     	;# 
  1150  0893                     	;# 
  1151  0895                     	;# 
  1152  0896                     	;# 
  1153  090C                     	;# 
  1154  090E                     	;# 
  1155  090F                     	;# 
  1156  091F                     	;# 
  1157  098F                     	;# 
  1158  098F                     	;# 
  1159  0990                     	;# 
  1160  0991                     	;# 
  1161  0992                     	;# 
  1162  0993                     	;# 
  1163  0994                     	;# 
  1164  0995                     	;# 
  1165  0996                     	;# 
  1166  0997                     	;# 
  1167  0A19                     	;# 
  1168  0A19                     	;# 
  1169  0A1A                     	;# 
  1170  0A1A                     	;# 
  1171  0A1B                     	;# 
  1172  0A1B                     	;# 
  1173  0A1B                     	;# 
  1174  0A1C                     	;# 
  1175  0A1C                     	;# 
  1176  0A1D                     	;# 
  1177  0A1D                     	;# 
  1178  0A1E                     	;# 
  1179  0A1E                     	;# 
  1180  0A1F                     	;# 
  1181  0A1F                     	;# 
  1182  0A1F                     	;# 
  1183  1E0F                     	;# 
  1184  1E10                     	;# 
  1185  1E11                     	;# 
  1186  1E12                     	;# 
  1187  1E13                     	;# 
  1188  1E14                     	;# 
  1189  1E15                     	;# 
  1190  1E16                     	;# 
  1191  1E17                     	;# 
  1192  1E18                     	;# 
  1193  1E19                     	;# 
  1194  1E1A                     	;# 
  1195  1E1B                     	;# 
  1196  1E1C                     	;# 
  1197  1E1D                     	;# 
  1198  1E1E                     	;# 
  1199  1E1F                     	;# 
  1200  1E20                     	;# 
  1201  1E21                     	;# 
  1202  1E22                     	;# 
  1203  1E23                     	;# 
  1204  1E24                     	;# 
  1205  1E25                     	;# 
  1206  1E26                     	;# 
  1207  1E27                     	;# 
  1208  1E28                     	;# 
  1209  1E29                     	;# 
  1210  1E2A                     	;# 
  1211  1E2B                     	;# 
  1212  1E2C                     	;# 
  1213  1E2D                     	;# 
  1214  1E2E                     	;# 
  1215  1E2F                     	;# 
  1216  1E30                     	;# 
  1217  1E31                     	;# 
  1218  1E32                     	;# 
  1219  1E33                     	;# 
  1220  1E34                     	;# 
  1221  1E35                     	;# 
  1222  1E36                     	;# 
  1223  1E37                     	;# 
  1224  1E8F                     	;# 
  1225  1E90                     	;# 
  1226  1E91                     	;# 
  1227  1E92                     	;# 
  1228  1E93                     	;# 
  1229  1E9C                     	;# 
  1230  1EA1                     	;# 
  1231  1EA2                     	;# 
  1232  1EB1                     	;# 
  1233  1EBB                     	;# 
  1234  1EBC                     	;# 
  1235  1EBD                     	;# 
  1236  1EBE                     	;# 
  1237  1EC3                     	;# 
  1238  1EC5                     	;# 
  1239  1EC6                     	;# 
  1240  1EC7                     	;# 
  1241  1ECB                     	;# 
  1242  1ECC                     	;# 
  1243  1ECD                     	;# 
  1244  1ECE                     	;# 
  1245  1F10                     	;# 
  1246  1F11                     	;# 
  1247  1F12                     	;# 
  1248  1F13                     	;# 
  1249  1F14                     	;# 
  1250  1F15                     	;# 
  1251  1F20                     	;# 
  1252  1F21                     	;# 
  1253  1F22                     	;# 
  1254  1F23                     	;# 
  1255  1F24                     	;# 
  1256  1F25                     	;# 
  1257  1F38                     	;# 
  1258  1F39                     	;# 
  1259  1F3A                     	;# 
  1260  1F3B                     	;# 
  1261  1F3C                     	;# 
  1262  1F3D                     	;# 
  1263  1F3E                     	;# 
  1264  1F3F                     	;# 
  1265  1F4E                     	;# 
  1266  1F4F                     	;# 
  1267  1F50                     	;# 
  1268  1F51                     	;# 
  1269  1F52                     	;# 
  1270  1F53                     	;# 
  1271  1F54                     	;# 
  1272  1F55                     	;# 
  1273  1FE4                     	;# 
  1274  1FE5                     	;# 
  1275  1FE6                     	;# 
  1276  1FE7                     	;# 
  1277  1FE8                     	;# 
  1278  1FE8                     	;# 
  1279  1FE9                     	;# 
  1280  1FEA                     	;# 
  1281  1FEA                     	;# 
  1282  1FEB                     	;# 
  1283  1FED                     	;# 
  1284  1FEE                     	;# 
  1285  1FEF                     	;# 
  1286  0000                     	;# 
  1287  0001                     	;# 
  1288  0002                     	;# 
  1289  0003                     	;# 
  1290  0004                     	;# 
  1291  0005                     	;# 
  1292  0006                     	;# 
  1293  0007                     	;# 
  1294  0008                     	;# 
  1295  0009                     	;# 
  1296  000A                     	;# 
  1297  000B                     	;# 
  1298  000C                     	;# 
  1299  000E                     	;# 
  1300  0012                     	;# 
  1301  0014                     	;# 
  1302  0018                     	;# 
  1303  001A                     	;# 
  1304  009B                     	;# 
  1305  009B                     	;# 
  1306  009C                     	;# 
  1307  009D                     	;# 
  1308  009E                     	;# 
  1309  009F                     	;# 
  1310  0119                     	;# 
  1311  0119                     	;# 
  1312  0119                     	;# 
  1313  011A                     	;# 
  1314  011A                     	;# 
  1315  011A                     	;# 
  1316  011B                     	;# 
  1317  011B                     	;# 
  1318  011B                     	;# 
  1319  011B                     	;# 
  1320  011B                     	;# 
  1321  011C                     	;# 
  1322  011C                     	;# 
  1323  011C                     	;# 
  1324  011D                     	;# 
  1325  011D                     	;# 
  1326  011D                     	;# 
  1327  011E                     	;# 
  1328  011E                     	;# 
  1329  011E                     	;# 
  1330  011F                     	;# 
  1331  011F                     	;# 
  1332  011F                     	;# 
  1333  011F                     	;# 
  1334  011F                     	;# 
  1335  018C                     	;# 
  1336  018D                     	;# 
  1337  018E                     	;# 
  1338  018F                     	;# 
  1339  0190                     	;# 
  1340  0191                     	;# 
  1341  0192                     	;# 
  1342  020C                     	;# 
  1343  020C                     	;# 
  1344  020D                     	;# 
  1345  020E                     	;# 
  1346  020F                     	;# 
  1347  020F                     	;# 
  1348  0210                     	;# 
  1349  0210                     	;# 
  1350  0211                     	;# 
  1351  0211                     	;# 
  1352  028C                     	;# 
  1353  028C                     	;# 
  1354  028D                     	;# 
  1355  028D                     	;# 
  1356  028E                     	;# 
  1357  028F                     	;# 
  1358  0290                     	;# 
  1359  0291                     	;# 
  1360  030C                     	;# 
  1361  030C                     	;# 
  1362  030D                     	;# 
  1363  030E                     	;# 
  1364  030F                     	;# 
  1365  0310                     	;# 
  1366  0310                     	;# 
  1367  0311                     	;# 
  1368  0312                     	;# 
  1369  0313                     	;# 
  1370  0314                     	;# 
  1371  0315                     	;# 
  1372  0316                     	;# 
  1373  0318                     	;# 
  1374  0319                     	;# 
  1375  031A                     	;# 
  1376  031C                     	;# 
  1377  031D                     	;# 
  1378  031E                     	;# 
  1379  038C                     	;# 
  1380  038D                     	;# 
  1381  038E                     	;# 
  1382  058C                     	;# 
  1383  058C                     	;# 
  1384  058D                     	;# 
  1385  058E                     	;# 
  1386  058F                     	;# 
  1387  058F                     	;# 
  1388  0590                     	;# 
  1389  0591                     	;# 
  1390  0592                     	;# 
  1391  0593                     	;# 
  1392  059C                     	;# 
  1393  059C                     	;# 
  1394  059D                     	;# 
  1395  059D                     	;# 
  1396  059E                     	;# 
  1397  059F                     	;# 
  1398  060C                     	;# 
  1399  060D                     	;# 
  1400  060E                     	;# 
  1401  060F                     	;# 
  1402  0610                     	;# 
  1403  0611                     	;# 
  1404  0612                     	;# 
  1405  0613                     	;# 
  1406  0614                     	;# 
  1407  070C                     	;# 
  1408  070D                     	;# 
  1409  070E                     	;# 
  1410  070F                     	;# 
  1411  0710                     	;# 
  1412  0711                     	;# 
  1413  0712                     	;# 
  1414  0713                     	;# 
  1415  0716                     	;# 
  1416  0717                     	;# 
  1417  0718                     	;# 
  1418  0719                     	;# 
  1419  071A                     	;# 
  1420  071B                     	;# 
  1421  071C                     	;# 
  1422  071D                     	;# 
  1423  0796                     	;# 
  1424  0797                     	;# 
  1425  0798                     	;# 
  1426  0799                     	;# 
  1427  079A                     	;# 
  1428  079B                     	;# 
  1429  080C                     	;# 
  1430  080D                     	;# 
  1431  080E                     	;# 
  1432  080F                     	;# 
  1433  0810                     	;# 
  1434  0811                     	;# 
  1435  0812                     	;# 
  1436  0813                     	;# 
  1437  0814                     	;# 
  1438  081A                     	;# 
  1439  081A                     	;# 
  1440  081B                     	;# 
  1441  081C                     	;# 
  1442  081C                     	;# 
  1443  081D                     	;# 
  1444  081E                     	;# 
  1445  081F                     	;# 
  1446  088C                     	;# 
  1447  088D                     	;# 
  1448  088E                     	;# 
  1449  088F                     	;# 
  1450  0890                     	;# 
  1451  0891                     	;# 
  1452  0892                     	;# 
  1453  0893                     	;# 
  1454  0895                     	;# 
  1455  0896                     	;# 
  1456  090C                     	;# 
  1457  090E                     	;# 
  1458  090F                     	;# 
  1459  091F                     	;# 
  1460  098F                     	;# 
  1461  098F                     	;# 
  1462  0990                     	;# 
  1463  0991                     	;# 
  1464  0992                     	;# 
  1465  0993                     	;# 
  1466  0994                     	;# 
  1467  0995                     	;# 
  1468  0996                     	;# 
  1469  0997                     	;# 
  1470  0A19                     	;# 
  1471  0A19                     	;# 
  1472  0A1A                     	;# 
  1473  0A1A                     	;# 
  1474  0A1B                     	;# 
  1475  0A1B                     	;# 
  1476  0A1B                     	;# 
  1477  0A1C                     	;# 
  1478  0A1C                     	;# 
  1479  0A1D                     	;# 
  1480  0A1D                     	;# 
  1481  0A1E                     	;# 
  1482  0A1E                     	;# 
  1483  0A1F                     	;# 
  1484  0A1F                     	;# 
  1485  0A1F                     	;# 
  1486  1E0F                     	;# 
  1487  1E10                     	;# 
  1488  1E11                     	;# 
  1489  1E12                     	;# 
  1490  1E13                     	;# 
  1491  1E14                     	;# 
  1492  1E15                     	;# 
  1493  1E16                     	;# 
  1494  1E17                     	;# 
  1495  1E18                     	;# 
  1496  1E19                     	;# 
  1497  1E1A                     	;# 
  1498  1E1B                     	;# 
  1499  1E1C                     	;# 
  1500  1E1D                     	;# 
  1501  1E1E                     	;# 
  1502  1E1F                     	;# 
  1503  1E20                     	;# 
  1504  1E21                     	;# 
  1505  1E22                     	;# 
  1506  1E23                     	;# 
  1507  1E24                     	;# 
  1508  1E25                     	;# 
  1509  1E26                     	;# 
  1510  1E27                     	;# 
  1511  1E28                     	;# 
  1512  1E29                     	;# 
  1513  1E2A                     	;# 
  1514  1E2B                     	;# 
  1515  1E2C                     	;# 
  1516  1E2D                     	;# 
  1517  1E2E                     	;# 
  1518  1E2F                     	;# 
  1519  1E30                     	;# 
  1520  1E31                     	;# 
  1521  1E32                     	;# 
  1522  1E33                     	;# 
  1523  1E34                     	;# 
  1524  1E35                     	;# 
  1525  1E36                     	;# 
  1526  1E37                     	;# 
  1527  1E8F                     	;# 
  1528  1E90                     	;# 
  1529  1E91                     	;# 
  1530  1E92                     	;# 
  1531  1E93                     	;# 
  1532  1E9C                     	;# 
  1533  1EA1                     	;# 
  1534  1EA2                     	;# 
  1535  1EB1                     	;# 
  1536  1EBB                     	;# 
  1537  1EBC                     	;# 
  1538  1EBD                     	;# 
  1539  1EBE                     	;# 
  1540  1EC3                     	;# 
  1541  1EC5                     	;# 
  1542  1EC6                     	;# 
  1543  1EC7                     	;# 
  1544  1ECB                     	;# 
  1545  1ECC                     	;# 
  1546  1ECD                     	;# 
  1547  1ECE                     	;# 
  1548  1F10                     	;# 
  1549  1F11                     	;# 
  1550  1F12                     	;# 
  1551  1F13                     	;# 
  1552  1F14                     	;# 
  1553  1F15                     	;# 
  1554  1F20                     	;# 
  1555  1F21                     	;# 
  1556  1F22                     	;# 
  1557  1F23                     	;# 
  1558  1F24                     	;# 
  1559  1F25                     	;# 
  1560  1F38                     	;# 
  1561  1F39                     	;# 
  1562  1F3A                     	;# 
  1563  1F3B                     	;# 
  1564  1F3C                     	;# 
  1565  1F3D                     	;# 
  1566  1F3E                     	;# 
  1567  1F3F                     	;# 
  1568  1F4E                     	;# 
  1569  1F4F                     	;# 
  1570  1F50                     	;# 
  1571  1F51                     	;# 
  1572  1F52                     	;# 
  1573  1F53                     	;# 
  1574  1F54                     	;# 
  1575  1F55                     	;# 
  1576  1FE4                     	;# 
  1577  1FE5                     	;# 
  1578  1FE6                     	;# 
  1579  1FE7                     	;# 
  1580  1FE8                     	;# 
  1581  1FE8                     	;# 
  1582  1FE9                     	;# 
  1583  1FEA                     	;# 
  1584  1FEA                     	;# 
  1585  1FEB                     	;# 
  1586  1FED                     	;# 
  1587  1FEE                     	;# 
  1588  1FEF                     	;# 
  1589  0000                     	;# 
  1590  0001                     	;# 
  1591  0002                     	;# 
  1592  0003                     	;# 
  1593  0004                     	;# 
  1594  0005                     	;# 
  1595  0006                     	;# 
  1596  0007                     	;# 
  1597  0008                     	;# 
  1598  0009                     	;# 
  1599  000A                     	;# 
  1600  000B                     	;# 
  1601  000C                     	;# 
  1602  000E                     	;# 
  1603  0012                     	;# 
  1604  0014                     	;# 
  1605  0018                     	;# 
  1606  001A                     	;# 
  1607  009B                     	;# 
  1608  009B                     	;# 
  1609  009C                     	;# 
  1610  009D                     	;# 
  1611  009E                     	;# 
  1612  009F                     	;# 
  1613  0119                     	;# 
  1614  0119                     	;# 
  1615  0119                     	;# 
  1616  011A                     	;# 
  1617  011A                     	;# 
  1618  011A                     	;# 
  1619  011B                     	;# 
  1620  011B                     	;# 
  1621  011B                     	;# 
  1622  011B                     	;# 
  1623  011B                     	;# 
  1624  011C                     	;# 
  1625  011C                     	;# 
  1626  011C                     	;# 
  1627  011D                     	;# 
  1628  011D                     	;# 
  1629  011D                     	;# 
  1630  011E                     	;# 
  1631  011E                     	;# 
  1632  011E                     	;# 
  1633  011F                     	;# 
  1634  011F                     	;# 
  1635  011F                     	;# 
  1636  011F                     	;# 
  1637  011F                     	;# 
  1638  018C                     	;# 
  1639  018D                     	;# 
  1640  018E                     	;# 
  1641  018F                     	;# 
  1642  0190                     	;# 
  1643  0191                     	;# 
  1644  0192                     	;# 
  1645  020C                     	;# 
  1646  020C                     	;# 
  1647  020D                     	;# 
  1648  020E                     	;# 
  1649  020F                     	;# 
  1650  020F                     	;# 
  1651  0210                     	;# 
  1652  0210                     	;# 
  1653  0211                     	;# 
  1654  0211                     	;# 
  1655  028C                     	;# 
  1656  028C                     	;# 
  1657  028D                     	;# 
  1658  028D                     	;# 
  1659  028E                     	;# 
  1660  028F                     	;# 
  1661  0290                     	;# 
  1662  0291                     	;# 
  1663  030C                     	;# 
  1664  030C                     	;# 
  1665  030D                     	;# 
  1666  030E                     	;# 
  1667  030F                     	;# 
  1668  0310                     	;# 
  1669  0310                     	;# 
  1670  0311                     	;# 
  1671  0312                     	;# 
  1672  0313                     	;# 
  1673  0314                     	;# 
  1674  0315                     	;# 
  1675  0316                     	;# 
  1676  0318                     	;# 
  1677  0319                     	;# 
  1678  031A                     	;# 
  1679  031C                     	;# 
  1680  031D                     	;# 
  1681  031E                     	;# 
  1682  038C                     	;# 
  1683  038D                     	;# 
  1684  038E                     	;# 
  1685  058C                     	;# 
  1686  058C                     	;# 
  1687  058D                     	;# 
  1688  058E                     	;# 
  1689  058F                     	;# 
  1690  058F                     	;# 
  1691  0590                     	;# 
  1692  0591                     	;# 
  1693  0592                     	;# 
  1694  0593                     	;# 
  1695  059C                     	;# 
  1696  059C                     	;# 
  1697  059D                     	;# 
  1698  059D                     	;# 
  1699  059E                     	;# 
  1700  059F                     	;# 
  1701  060C                     	;# 
  1702  060D                     	;# 
  1703  060E                     	;# 
  1704  060F                     	;# 
  1705  0610                     	;# 
  1706  0611                     	;# 
  1707  0612                     	;# 
  1708  0613                     	;# 
  1709  0614                     	;# 
  1710  070C                     	;# 
  1711  070D                     	;# 
  1712  070E                     	;# 
  1713  070F                     	;# 
  1714  0710                     	;# 
  1715  0711                     	;# 
  1716  0712                     	;# 
  1717  0713                     	;# 
  1718  0716                     	;# 
  1719  0717                     	;# 
  1720  0718                     	;# 
  1721  0719                     	;# 
  1722  071A                     	;# 
  1723  071B                     	;# 
  1724  071C                     	;# 
  1725  071D                     	;# 
  1726  0796                     	;# 
  1727  0797                     	;# 
  1728  0798                     	;# 
  1729  0799                     	;# 
  1730  079A                     	;# 
  1731  079B                     	;# 
  1732  080C                     	;# 
  1733  080D                     	;# 
  1734  080E                     	;# 
  1735  080F                     	;# 
  1736  0810                     	;# 
  1737  0811                     	;# 
  1738  0812                     	;# 
  1739  0813                     	;# 
  1740  0814                     	;# 
  1741  081A                     	;# 
  1742  081A                     	;# 
  1743  081B                     	;# 
  1744  081C                     	;# 
  1745  081C                     	;# 
  1746  081D                     	;# 
  1747  081E                     	;# 
  1748  081F                     	;# 
  1749  088C                     	;# 
  1750  088D                     	;# 
  1751  088E                     	;# 
  1752  088F                     	;# 
  1753  0890                     	;# 
  1754  0891                     	;# 
  1755  0892                     	;# 
  1756  0893                     	;# 
  1757  0895                     	;# 
  1758  0896                     	;# 
  1759  090C                     	;# 
  1760  090E                     	;# 
  1761  090F                     	;# 
  1762  091F                     	;# 
  1763  098F                     	;# 
  1764  098F                     	;# 
  1765  0990                     	;# 
  1766  0991                     	;# 
  1767  0992                     	;# 
  1768  0993                     	;# 
  1769  0994                     	;# 
  1770  0995                     	;# 
  1771  0996                     	;# 
  1772  0997                     	;# 
  1773  0A19                     	;# 
  1774  0A19                     	;# 
  1775  0A1A                     	;# 
  1776  0A1A                     	;# 
  1777  0A1B                     	;# 
  1778  0A1B                     	;# 
  1779  0A1B                     	;# 
  1780  0A1C                     	;# 
  1781  0A1C                     	;# 
  1782  0A1D                     	;# 
  1783  0A1D                     	;# 
  1784  0A1E                     	;# 
  1785  0A1E                     	;# 
  1786  0A1F                     	;# 
  1787  0A1F                     	;# 
  1788  0A1F                     	;# 
  1789  1E0F                     	;# 
  1790  1E10                     	;# 
  1791  1E11                     	;# 
  1792  1E12                     	;# 
  1793  1E13                     	;# 
  1794  1E14                     	;# 
  1795  1E15                     	;# 
  1796  1E16                     	;# 
  1797  1E17                     	;# 
  1798  1E18                     	;# 
  1799  1E19                     	;# 
  1800  1E1A                     	;# 
  1801  1E1B                     	;# 
  1802  1E1C                     	;# 
  1803  1E1D                     	;# 
  1804  1E1E                     	;# 
  1805  1E1F                     	;# 
  1806  1E20                     	;# 
  1807  1E21                     	;# 
  1808  1E22                     	;# 
  1809  1E23                     	;# 
  1810  1E24                     	;# 
  1811  1E25                     	;# 
  1812  1E26                     	;# 
  1813  1E27                     	;# 
  1814  1E28                     	;# 
  1815  1E29                     	;# 
  1816  1E2A                     	;# 
  1817  1E2B                     	;# 
  1818  1E2C                     	;# 
  1819  1E2D                     	;# 
  1820  1E2E                     	;# 
  1821  1E2F                     	;# 
  1822  1E30                     	;# 
  1823  1E31                     	;# 
  1824  1E32                     	;# 
  1825  1E33                     	;# 
  1826  1E34                     	;# 
  1827  1E35                     	;# 
  1828  1E36                     	;# 
  1829  1E37                     	;# 
  1830  1E8F                     	;# 
  1831  1E90                     	;# 
  1832  1E91                     	;# 
  1833  1E92                     	;# 
  1834  1E93                     	;# 
  1835  1E9C                     	;# 
  1836  1EA1                     	;# 
  1837  1EA2                     	;# 
  1838  1EB1                     	;# 
  1839  1EBB                     	;# 
  1840  1EBC                     	;# 
  1841  1EBD                     	;# 
  1842  1EBE                     	;# 
  1843  1EC3                     	;# 
  1844  1EC5                     	;# 
  1845  1EC6                     	;# 
  1846  1EC7                     	;# 
  1847  1ECB                     	;# 
  1848  1ECC                     	;# 
  1849  1ECD                     	;# 
  1850  1ECE                     	;# 
  1851  1F10                     	;# 
  1852  1F11                     	;# 
  1853  1F12                     	;# 
  1854  1F13                     	;# 
  1855  1F14                     	;# 
  1856  1F15                     	;# 
  1857  1F20                     	;# 
  1858  1F21                     	;# 
  1859  1F22                     	;# 
  1860  1F23                     	;# 
  1861  1F24                     	;# 
  1862  1F25                     	;# 
  1863  1F38                     	;# 
  1864  1F39                     	;# 
  1865  1F3A                     	;# 
  1866  1F3B                     	;# 
  1867  1F3C                     	;# 
  1868  1F3D                     	;# 
  1869  1F3E                     	;# 
  1870  1F3F                     	;# 
  1871  1F4E                     	;# 
  1872  1F4F                     	;# 
  1873  1F50                     	;# 
  1874  1F51                     	;# 
  1875  1F52                     	;# 
  1876  1F53                     	;# 
  1877  1F54                     	;# 
  1878  1F55                     	;# 
  1879  1FE4                     	;# 
  1880  1FE5                     	;# 
  1881  1FE6                     	;# 
  1882  1FE7                     	;# 
  1883  1FE8                     	;# 
  1884  1FE8                     	;# 
  1885  1FE9                     	;# 
  1886  1FEA                     	;# 
  1887  1FEA                     	;# 
  1888  1FEB                     	;# 
  1889  1FED                     	;# 
  1890  1FEE                     	;# 
  1891  1FEF                     	;# 
  1892  0000                     	;# 
  1893  0001                     	;# 
  1894  0002                     	;# 
  1895  0003                     	;# 
  1896  0004                     	;# 
  1897  0005                     	;# 
  1898  0006                     	;# 
  1899  0007                     	;# 
  1900  0008                     	;# 
  1901  0009                     	;# 
  1902  000A                     	;# 
  1903  000B                     	;# 
  1904  000C                     	;# 
  1905  000E                     	;# 
  1906  0012                     	;# 
  1907  0014                     	;# 
  1908  0018                     	;# 
  1909  001A                     	;# 
  1910  009B                     	;# 
  1911  009B                     	;# 
  1912  009C                     	;# 
  1913  009D                     	;# 
  1914  009E                     	;# 
  1915  009F                     	;# 
  1916  0119                     	;# 
  1917  0119                     	;# 
  1918  0119                     	;# 
  1919  011A                     	;# 
  1920  011A                     	;# 
  1921  011A                     	;# 
  1922  011B                     	;# 
  1923  011B                     	;# 
  1924  011B                     	;# 
  1925  011B                     	;# 
  1926  011B                     	;# 
  1927  011C                     	;# 
  1928  011C                     	;# 
  1929  011C                     	;# 
  1930  011D                     	;# 
  1931  011D                     	;# 
  1932  011D                     	;# 
  1933  011E                     	;# 
  1934  011E                     	;# 
  1935  011E                     	;# 
  1936  011F                     	;# 
  1937  011F                     	;# 
  1938  011F                     	;# 
  1939  011F                     	;# 
  1940  011F                     	;# 
  1941  018C                     	;# 
  1942  018D                     	;# 
  1943  018E                     	;# 
  1944  018F                     	;# 
  1945  0190                     	;# 
  1946  0191                     	;# 
  1947  0192                     	;# 
  1948  020C                     	;# 
  1949  020C                     	;# 
  1950  020D                     	;# 
  1951  020E                     	;# 
  1952  020F                     	;# 
  1953  020F                     	;# 
  1954  0210                     	;# 
  1955  0210                     	;# 
  1956  0211                     	;# 
  1957  0211                     	;# 
  1958  028C                     	;# 
  1959  028C                     	;# 
  1960  028D                     	;# 
  1961  028D                     	;# 
  1962  028E                     	;# 
  1963  028F                     	;# 
  1964  0290                     	;# 
  1965  0291                     	;# 
  1966  030C                     	;# 
  1967  030C                     	;# 
  1968  030D                     	;# 
  1969  030E                     	;# 
  1970  030F                     	;# 
  1971  0310                     	;# 
  1972  0310                     	;# 
  1973  0311                     	;# 
  1974  0312                     	;# 
  1975  0313                     	;# 
  1976  0314                     	;# 
  1977  0315                     	;# 
  1978  0316                     	;# 
  1979  0318                     	;# 
  1980  0319                     	;# 
  1981  031A                     	;# 
  1982  031C                     	;# 
  1983  031D                     	;# 
  1984  031E                     	;# 
  1985  038C                     	;# 
  1986  038D                     	;# 
  1987  038E                     	;# 
  1988  058C                     	;# 
  1989  058C                     	;# 
  1990  058D                     	;# 
  1991  058E                     	;# 
  1992  058F                     	;# 
  1993  058F                     	;# 
  1994  0590                     	;# 
  1995  0591                     	;# 
  1996  0592                     	;# 
  1997  0593                     	;# 
  1998  059C                     	;# 
  1999  059C                     	;# 
  2000  059D                     	;# 
  2001  059D                     	;# 
  2002  059E                     	;# 
  2003  059F                     	;# 
  2004  060C                     	;# 
  2005  060D                     	;# 
  2006  060E                     	;# 
  2007  060F                     	;# 
  2008  0610                     	;# 
  2009  0611                     	;# 
  2010  0612                     	;# 
  2011  0613                     	;# 
  2012  0614                     	;# 
  2013  070C                     	;# 
  2014  070D                     	;# 
  2015  070E                     	;# 
  2016  070F                     	;# 
  2017  0710                     	;# 
  2018  0711                     	;# 
  2019  0712                     	;# 
  2020  0713                     	;# 
  2021  0716                     	;# 
  2022  0717                     	;# 
  2023  0718                     	;# 
  2024  0719                     	;# 
  2025  071A                     	;# 
  2026  071B                     	;# 
  2027  071C                     	;# 
  2028  071D                     	;# 
  2029  0796                     	;# 
  2030  0797                     	;# 
  2031  0798                     	;# 
  2032  0799                     	;# 
  2033  079A                     	;# 
  2034  079B                     	;# 
  2035  080C                     	;# 
  2036  080D                     	;# 
  2037  080E                     	;# 
  2038  080F                     	;# 
  2039  0810                     	;# 
  2040  0811                     	;# 
  2041  0812                     	;# 
  2042  0813                     	;# 
  2043  0814                     	;# 
  2044  081A                     	;# 
  2045  081A                     	;# 
  2046  081B                     	;# 
  2047  081C                     	;# 
  2048  081C                     	;# 
  2049  081D                     	;# 
  2050  081E                     	;# 
  2051  081F                     	;# 
  2052  088C                     	;# 
  2053  088D                     	;# 
  2054  088E                     	;# 
  2055  088F                     	;# 
  2056  0890                     	;# 
  2057  0891                     	;# 
  2058  0892                     	;# 
  2059  0893                     	;# 
  2060  0895                     	;# 
  2061  0896                     	;# 
  2062  090C                     	;# 
  2063  090E                     	;# 
  2064  090F                     	;# 
  2065  091F                     	;# 
  2066  098F                     	;# 
  2067  098F                     	;# 
  2068  0990                     	;# 
  2069  0991                     	;# 
  2070  0992                     	;# 
  2071  0993                     	;# 
  2072  0994                     	;# 
  2073  0995                     	;# 
  2074  0996                     	;# 
  2075  0997                     	;# 
  2076  0A19                     	;# 
  2077  0A19                     	;# 
  2078  0A1A                     	;# 
  2079  0A1A                     	;# 
  2080  0A1B                     	;# 
  2081  0A1B                     	;# 
  2082  0A1B                     	;# 
  2083  0A1C                     	;# 
  2084  0A1C                     	;# 
  2085  0A1D                     	;# 
  2086  0A1D                     	;# 
  2087  0A1E                     	;# 
  2088  0A1E                     	;# 
  2089  0A1F                     	;# 
  2090  0A1F                     	;# 
  2091  0A1F                     	;# 
  2092  1E0F                     	;# 
  2093  1E10                     	;# 
  2094  1E11                     	;# 
  2095  1E12                     	;# 
  2096  1E13                     	;# 
  2097  1E14                     	;# 
  2098  1E15                     	;# 
  2099  1E16                     	;# 
  2100  1E17                     	;# 
  2101  1E18                     	;# 
  2102  1E19                     	;# 
  2103  1E1A                     	;# 
  2104  1E1B                     	;# 
  2105  1E1C                     	;# 
  2106  1E1D                     	;# 
  2107  1E1E                     	;# 
  2108  1E1F                     	;# 
  2109  1E20                     	;# 
  2110  1E21                     	;# 
  2111  1E22                     	;# 
  2112  1E23                     	;# 
  2113  1E24                     	;# 
  2114  1E25                     	;# 
  2115  1E26                     	;# 
  2116  1E27                     	;# 
  2117  1E28                     	;# 
  2118  1E29                     	;# 
  2119  1E2A                     	;# 
  2120  1E2B                     	;# 
  2121  1E2C                     	;# 
  2122  1E2D                     	;# 
  2123  1E2E                     	;# 
  2124  1E2F                     	;# 
  2125  1E30                     	;# 
  2126  1E31                     	;# 
  2127  1E32                     	;# 
  2128  1E33                     	;# 
  2129  1E34                     	;# 
  2130  1E35                     	;# 
  2131  1E36                     	;# 
  2132  1E37                     	;# 
  2133  1E8F                     	;# 
  2134  1E90                     	;# 
  2135  1E91                     	;# 
  2136  1E92                     	;# 
  2137  1E93                     	;# 
  2138  1E9C                     	;# 
  2139  1EA1                     	;# 
  2140  1EA2                     	;# 
  2141  1EB1                     	;# 
  2142  1EBB                     	;# 
  2143  1EBC                     	;# 
  2144  1EBD                     	;# 
  2145  1EBE                     	;# 
  2146  1EC3                     	;# 
  2147  1EC5                     	;# 
  2148  1EC6                     	;# 
  2149  1EC7                     	;# 
  2150  1ECB                     	;# 
  2151  1ECC                     	;# 
  2152  1ECD                     	;# 
  2153  1ECE                     	;# 
  2154  1F10                     	;# 
  2155  1F11                     	;# 
  2156  1F12                     	;# 
  2157  1F13                     	;# 
  2158  1F14                     	;# 
  2159  1F15                     	;# 
  2160  1F20                     	;# 
  2161  1F21                     	;# 
  2162  1F22                     	;# 
  2163  1F23                     	;# 
  2164  1F24                     	;# 
  2165  1F25                     	;# 
  2166  1F38                     	;# 
  2167  1F39                     	;# 
  2168  1F3A                     	;# 
  2169  1F3B                     	;# 
  2170  1F3C                     	;# 
  2171  1F3D                     	;# 
  2172  1F3E                     	;# 
  2173  1F3F                     	;# 
  2174  1F4E                     	;# 
  2175  1F4F                     	;# 
  2176  1F50                     	;# 
  2177  1F51                     	;# 
  2178  1F52                     	;# 
  2179  1F53                     	;# 
  2180  1F54                     	;# 
  2181  1F55                     	;# 
  2182  1FE4                     	;# 
  2183  1FE5                     	;# 
  2184  1FE6                     	;# 
  2185  1FE7                     	;# 
  2186  1FE8                     	;# 
  2187  1FE8                     	;# 
  2188  1FE9                     	;# 
  2189  1FEA                     	;# 
  2190  1FEA                     	;# 
  2191  1FEB                     	;# 
  2192  1FED                     	;# 
  2193  1FEE                     	;# 
  2194  1FEF                     	;# 
  2195  0000                     	;# 
  2196  0001                     	;# 
  2197  0002                     	;# 
  2198  0003                     	;# 
  2199  0004                     	;# 
  2200  0005                     	;# 
  2201  0006                     	;# 
  2202  0007                     	;# 
  2203  0008                     	;# 
  2204  0009                     	;# 
  2205  000A                     	;# 
  2206  000B                     	;# 
  2207  000C                     	;# 
  2208  000E                     	;# 
  2209  0012                     	;# 
  2210  0014                     	;# 
  2211  0018                     	;# 
  2212  001A                     	;# 
  2213  009B                     	;# 
  2214  009B                     	;# 
  2215  009C                     	;# 
  2216  009D                     	;# 
  2217  009E                     	;# 
  2218  009F                     	;# 
  2219  0119                     	;# 
  2220  0119                     	;# 
  2221  0119                     	;# 
  2222  011A                     	;# 
  2223  011A                     	;# 
  2224  011A                     	;# 
  2225  011B                     	;# 
  2226  011B                     	;# 
  2227  011B                     	;# 
  2228  011B                     	;# 
  2229  011B                     	;# 
  2230  011C                     	;# 
  2231  011C                     	;# 
  2232  011C                     	;# 
  2233  011D                     	;# 
  2234  011D                     	;# 
  2235  011D                     	;# 
  2236  011E                     	;# 
  2237  011E                     	;# 
  2238  011E                     	;# 
  2239  011F                     	;# 
  2240  011F                     	;# 
  2241  011F                     	;# 
  2242  011F                     	;# 
  2243  011F                     	;# 
  2244  018C                     	;# 
  2245  018D                     	;# 
  2246  018E                     	;# 
  2247  018F                     	;# 
  2248  0190                     	;# 
  2249  0191                     	;# 
  2250  0192                     	;# 
  2251  020C                     	;# 
  2252  020C                     	;# 
  2253  020D                     	;# 
  2254  020E                     	;# 
  2255  020F                     	;# 
  2256  020F                     	;# 
  2257  0210                     	;# 
  2258  0210                     	;# 
  2259  0211                     	;# 
  2260  0211                     	;# 
  2261  028C                     	;# 
  2262  028C                     	;# 
  2263  028D                     	;# 
  2264  028D                     	;# 
  2265  028E                     	;# 
  2266  028F                     	;# 
  2267  0290                     	;# 
  2268  0291                     	;# 
  2269  030C                     	;# 
  2270  030C                     	;# 
  2271  030D                     	;# 
  2272  030E                     	;# 
  2273  030F                     	;# 
  2274  0310                     	;# 
  2275  0310                     	;# 
  2276  0311                     	;# 
  2277  0312                     	;# 
  2278  0313                     	;# 
  2279  0314                     	;# 
  2280  0315                     	;# 
  2281  0316                     	;# 
  2282  0318                     	;# 
  2283  0319                     	;# 
  2284  031A                     	;# 
  2285  031C                     	;# 
  2286  031D                     	;# 
  2287  031E                     	;# 
  2288  038C                     	;# 
  2289  038D                     	;# 
  2290  038E                     	;# 
  2291  058C                     	;# 
  2292  058C                     	;# 
  2293  058D                     	;# 
  2294  058E                     	;# 
  2295  058F                     	;# 
  2296  058F                     	;# 
  2297  0590                     	;# 
  2298  0591                     	;# 
  2299  0592                     	;# 
  2300  0593                     	;# 
  2301  059C                     	;# 
  2302  059C                     	;# 
  2303  059D                     	;# 
  2304  059D                     	;# 
  2305  059E                     	;# 
  2306  059F                     	;# 
  2307  060C                     	;# 
  2308  060D                     	;# 
  2309  060E                     	;# 
  2310  060F                     	;# 
  2311  0610                     	;# 
  2312  0611                     	;# 
  2313  0612                     	;# 
  2314  0613                     	;# 
  2315  0614                     	;# 
  2316  070C                     	;# 
  2317  070D                     	;# 
  2318  070E                     	;# 
  2319  070F                     	;# 
  2320  0710                     	;# 
  2321  0711                     	;# 
  2322  0712                     	;# 
  2323  0713                     	;# 
  2324  0716                     	;# 
  2325  0717                     	;# 
  2326  0718                     	;# 
  2327  0719                     	;# 
  2328  071A                     	;# 
  2329  071B                     	;# 
  2330  071C                     	;# 
  2331  071D                     	;# 
  2332  0796                     	;# 
  2333  0797                     	;# 
  2334  0798                     	;# 
  2335  0799                     	;# 
  2336  079A                     	;# 
  2337  079B                     	;# 
  2338  080C                     	;# 
  2339  080D                     	;# 
  2340  080E                     	;# 
  2341  080F                     	;# 
  2342  0810                     	;# 
  2343  0811                     	;# 
  2344  0812                     	;# 
  2345  0813                     	;# 
  2346  0814                     	;# 
  2347  081A                     	;# 
  2348  081A                     	;# 
  2349  081B                     	;# 
  2350  081C                     	;# 
  2351  081C                     	;# 
  2352  081D                     	;# 
  2353  081E                     	;# 
  2354  081F                     	;# 
  2355  088C                     	;# 
  2356  088D                     	;# 
  2357  088E                     	;# 
  2358  088F                     	;# 
  2359  0890                     	;# 
  2360  0891                     	;# 
  2361  0892                     	;# 
  2362  0893                     	;# 
  2363  0895                     	;# 
  2364  0896                     	;# 
  2365  090C                     	;# 
  2366  090E                     	;# 
  2367  090F                     	;# 
  2368  091F                     	;# 
  2369  098F                     	;# 
  2370  098F                     	;# 
  2371  0990                     	;# 
  2372  0991                     	;# 
  2373  0992                     	;# 
  2374  0993                     	;# 
  2375  0994                     	;# 
  2376  0995                     	;# 
  2377  0996                     	;# 
  2378  0997                     	;# 
  2379  0A19                     	;# 
  2380  0A19                     	;# 
  2381  0A1A                     	;# 
  2382  0A1A                     	;# 
  2383  0A1B                     	;# 
  2384  0A1B                     	;# 
  2385  0A1B                     	;# 
  2386  0A1C                     	;# 
  2387  0A1C                     	;# 
  2388  0A1D                     	;# 
  2389  0A1D                     	;# 
  2390  0A1E                     	;# 
  2391  0A1E                     	;# 
  2392  0A1F                     	;# 
  2393  0A1F                     	;# 
  2394  0A1F                     	;# 
  2395  1E0F                     	;# 
  2396  1E10                     	;# 
  2397  1E11                     	;# 
  2398  1E12                     	;# 
  2399  1E13                     	;# 
  2400  1E14                     	;# 
  2401  1E15                     	;# 
  2402  1E16                     	;# 
  2403  1E17                     	;# 
  2404  1E18                     	;# 
  2405  1E19                     	;# 
  2406  1E1A                     	;# 
  2407  1E1B                     	;# 
  2408  1E1C                     	;# 
  2409  1E1D                     	;# 
  2410  1E1E                     	;# 
  2411  1E1F                     	;# 
  2412  1E20                     	;# 
  2413  1E21                     	;# 
  2414  1E22                     	;# 
  2415  1E23                     	;# 
  2416  1E24                     	;# 
  2417  1E25                     	;# 
  2418  1E26                     	;# 
  2419  1E27                     	;# 
  2420  1E28                     	;# 
  2421  1E29                     	;# 
  2422  1E2A                     	;# 
  2423  1E2B                     	;# 
  2424  1E2C                     	;# 
  2425  1E2D                     	;# 
  2426  1E2E                     	;# 
  2427  1E2F                     	;# 
  2428  1E30                     	;# 
  2429  1E31                     	;# 
  2430  1E32                     	;# 
  2431  1E33                     	;# 
  2432  1E34                     	;# 
  2433  1E35                     	;# 
  2434  1E36                     	;# 
  2435  1E37                     	;# 
  2436  1E8F                     	;# 
  2437  1E90                     	;# 
  2438  1E91                     	;# 
  2439  1E92                     	;# 
  2440  1E93                     	;# 
  2441  1E9C                     	;# 
  2442  1EA1                     	;# 
  2443  1EA2                     	;# 
  2444  1EB1                     	;# 
  2445  1EBB                     	;# 
  2446  1EBC                     	;# 
  2447  1EBD                     	;# 
  2448  1EBE                     	;# 
  2449  1EC3                     	;# 
  2450  1EC5                     	;# 
  2451  1EC6                     	;# 
  2452  1EC7                     	;# 
  2453  1ECB                     	;# 
  2454  1ECC                     	;# 
  2455  1ECD                     	;# 
  2456  1ECE                     	;# 
  2457  1F10                     	;# 
  2458  1F11                     	;# 
  2459  1F12                     	;# 
  2460  1F13                     	;# 
  2461  1F14                     	;# 
  2462  1F15                     	;# 
  2463  1F20                     	;# 
  2464  1F21                     	;# 
  2465  1F22                     	;# 
  2466  1F23                     	;# 
  2467  1F24                     	;# 
  2468  1F25                     	;# 
  2469  1F38                     	;# 
  2470  1F39                     	;# 
  2471  1F3A                     	;# 
  2472  1F3B                     	;# 
  2473  1F3C                     	;# 
  2474  1F3D                     	;# 
  2475  1F3E                     	;# 
  2476  1F3F                     	;# 
  2477  1F4E                     	;# 
  2478  1F4F                     	;# 
  2479  1F50                     	;# 
  2480  1F51                     	;# 
  2481  1F52                     	;# 
  2482  1F53                     	;# 
  2483  1F54                     	;# 
  2484  1F55                     	;# 
  2485  1FE4                     	;# 
  2486  1FE5                     	;# 
  2487  1FE6                     	;# 
  2488  1FE7                     	;# 
  2489  1FE8                     	;# 
  2490  1FE8                     	;# 
  2491  1FE9                     	;# 
  2492  1FEA                     	;# 
  2493  1FEA                     	;# 
  2494  1FEB                     	;# 
  2495  1FED                     	;# 
  2496  1FEE                     	;# 
  2497  1FEF                     	;# 
  2498                           
  2499 ;; Function _TMR0_DefaultInterruptHandler is unused but had its address taken
  2500  0000                     
  2501                           	psect	idataCOMMON
  2502  025C                     __pidataCOMMON:	
  2503                           
  2504                           ;initializer for _I2C1_slaveWriteData
  2505  025C  3455               	retlw	85
  2506                           
  2507                           	psect	idataBANK0
  2508  023D                     __pidataBANK0:	
  2509                           
  2510                           ;initializer for _EEPROM_Buffer
  2511  023D  3400               	retlw	0
  2512  023E  3400               	retlw	0
  2513  023F  3401               	retlw	1
  2514  0240  3400               	retlw	0
  2515  0241  3400               	retlw	0
  2516  0242  3400               	retlw	0
  2517  0243  3400               	retlw	0
  2518                           
  2519                           	psect	nvCOMMON
  2520  0075                     __pnvCOMMON:	
  2521  0075                     _timer1ReloadVal:	
  2522  0075                     	ds	2
  2523                           
  2524                           	psect	nvBANK0
  2525  0032                     __pnvBANK0:	
  2526  0032                     _TMR1_InterruptHandler:	
  2527  0032                     	ds	2
  2528  0034                     _TMR0_InterruptHandler:	
  2529  0034                     	ds	2
  2530  001A                     _LATCbits	set	26
  2531  0018                     _LATAbits	set	24
  2532  0014                     _TRISC	set	20
  2533  0012                     _TRISA	set	18
  2534  001A                     _LATC	set	26
  2535  0018                     _LATA	set	24
  2536  000B                     _INTCONbits	set	11
  2537  009D                     _ADCON0bits	set	157
  2538  009C                     _ADRESH	set	156
  2539  009B                     _ADRESL	set	155
  2540  009E                     _ADCON1	set	158
  2541  009D                     _ADCON0	set	157
  2542  0190                     _SSP1CON1bits	set	400
  2543  0191                     _SSP1CON2bits	set	401
  2544  018F                     _SSP1STATbits	set	399
  2545  018C                     _SSP1BUF	set	396
  2546  018D                     _SSP1ADD	set	397
  2547  018E                     _SSP1MSK	set	398
  2548  0192                     _SSP1CON3	set	402
  2549  0191                     _SSP1CON2	set	401
  2550  0190                     _SSP1CON1	set	400
  2551  018F                     _SSP1STAT	set	399
  2552  020F                     _T1GCONbits	set	527
  2553  020E                     _T1CONbits	set	526
  2554  020E                     _T1CON	set	526
  2555  020C                     _TMR1L	set	524
  2556  020D                     _TMR1H	set	525
  2557  0211                     _T1CLK	set	529
  2558  0210                     _T1GATE	set	528
  2559  020F                     _T1GCON	set	527
  2560  059E                     _T0CON0bits	set	1438
  2561  059E                     _T0CON0	set	1438
  2562  059C                     _TMR0L	set	1436
  2563  059D                     _TMR0H	set	1437
  2564  059F                     _T0CON1	set	1439
  2565  070F                     _PIR3bits	set	1807
  2566  0719                     _PIE3bits	set	1817
  2567  0710                     _PIR4bits	set	1808
  2568  071A                     _PIE4bits	set	1818
  2569  0716                     _PIE0bits	set	1814
  2570  070C                     _PIR0bits	set	1804
  2571  079B                     _PMD5	set	1947
  2572  079A                     _PMD4	set	1946
  2573  0799                     _PMD3	set	1945
  2574  0798                     _PMD2	set	1944
  2575  0797                     _PMD1	set	1943
  2576  0796                     _PMD0	set	1942
  2577  0892                     _OSCTUNE	set	2194
  2578  0890                     _OSCSTAT	set	2192
  2579  0893                     _OSCFRQ	set	2195
  2580  0891                     _OSCEN	set	2193
  2581  088F                     _OSCCON3	set	2191
  2582  088D                     _OSCCON1	set	2189
  2583  1EC6                     _SSP1DATPPS	set	7878
  2584  1EC5                     _SSP1CLKPPS	set	7877
  2585  1F10                     _RA0PPS	set	7952
  2586  1F11                     _RA1PPS	set	7953
  2587  1F51                     _SLRCONC	set	8017
  2588  1F3B                     _SLRCONA	set	7995
  2589  1F50                     _ODCONC	set	8016
  2590  1F3A                     _ODCONA	set	7994
  2591  1F4F                     _WPUC	set	8015
  2592  1F39                     _WPUA	set	7993
  2593  1F38                     _ANSELA	set	7992
  2594  1F4E                     _ANSELC	set	8014
  2595                           
  2596                           ; #config settings
  2597  0000                     
  2598                           	psect	cinit
  2599  002D                     start_initialization:	
  2600  002D                     __initialization:	
  2601                           
  2602                           ; Initialize objects allocated to COMMON
  2603  002D  3182  225C  3180   	fcall	__pidataCOMMON	;fetch initializer
  2604  0030  00F9               	movwf	__pdataCOMMON& (0+127)
  2605                           
  2606                           ; Initialize objects allocated to BANK0
  2607  0031  303D               	movlw	low __pidataBANK0
  2608  0032  0084               	movwf	4
  2609  0033  3082               	movlw	(high __pidataBANK0)| (0+128)
  2610  0034  0085               	movwf	5
  2611  0035  302B               	movlw	low __pdataBANK0
  2612  0036  0086               	movwf	6
  2613  0037  3000               	movlw	high __pdataBANK0
  2614  0038  0087               	movwf	7
  2615  0039  3007               	movlw	7
  2616  003A  3182  2244         	fcall	init_ram
  2617                           
  2618                           ; Clear objects allocated to COMMON
  2619  003C  01F7               	clrf	__pbssCOMMON& (0+127)
  2620  003D  01F8               	clrf	(__pbssCOMMON+1)& (0+127)
  2621                           
  2622                           ; Clear objects allocated to BANK0
  2623  003E  01B6               	clrf	__pbssBANK0& (0+127)
  2624  003F  01B7               	clrf	(__pbssBANK0+1)& (0+127)
  2625  0040                     end_of_initialization:	
  2626                           ;End of C runtime variable initialization code
  2627                           
  2628  0040                     __end_of__initialization:	
  2629  0040  107E               	bcf	int$flags,0	;clear compiler interrupt flag (level 1)
  2630  0041  0140               	movlb	0
  2631  0042  3180  2844         	ljmp	_main	;jump to C main() function
  2632                           
  2633                           	psect	bssCOMMON
  2634  0077                     __pbssCOMMON:	
  2635  0077                     I2C1_StatusCallback@slaveWriteType:	
  2636  0077                     	ds	1
  2637  0078                     I2C1_StatusCallback@eepromAddress:	
  2638  0078                     	ds	1
  2639                           
  2640                           	psect	dataCOMMON
  2641  0079                     __pdataCOMMON:	
  2642  0079                     _I2C1_slaveWriteData:	
  2643  0079                     	ds	1
  2644                           
  2645                           	psect	bssBANK0
  2646  0036                     __pbssBANK0:	
  2647  0036                     _flashtaillight:	
  2648  0036                     	ds	1
  2649  0037                     _time:	
  2650  0037                     	ds	1
  2651                           
  2652                           	psect	dataBANK0
  2653  002B                     __pdataBANK0:	
  2654  002B                     _EEPROM_Buffer:	
  2655  002B                     	ds	7
  2656                           
  2657                           	psect	inittext
  2658  0244                     init_ram:	
  2659  0244  00FE               	movwf	126
  2660  0245                     initloop:	
  2661  0245  0012               	moviw fsr0++
  2662  0246  001E               	movwi fsr1++
  2663  0247  0BFE               	decfsz	126,f
  2664  0248  2A45               	goto	initloop
  2665  0249  3400               	retlw	0
  2666                           
  2667                           	psect	cstackCOMMON
  2668  0070                     __pcstackCOMMON:	
  2669  0070                     ?_TMR1_ISR:	
  2670  0070                     ?_I2C1_ISR:	
  2671                           ; 1 bytes @ 0x0
  2672                           
  2673  0070                     ?_PMD_Initialize:	
  2674                           ; 1 bytes @ 0x0
  2675                           
  2676  0070                     ?_PIN_MANAGER_Initialize:	
  2677                           ; 1 bytes @ 0x0
  2678                           
  2679  0070                     ?_OSCILLATOR_Initialize:	
  2680                           ; 1 bytes @ 0x0
  2681                           
  2682  0070                     ?_I2C1_Initialize:	
  2683                           ; 1 bytes @ 0x0
  2684                           
  2685  0070                     ?_ADC_Initialize:	
  2686                           ; 1 bytes @ 0x0
  2687                           
  2688  0070                     ?_TMR1_Initialize:	
  2689                           ; 1 bytes @ 0x0
  2690                           
  2691  0070                     ?_I2C1_StatusCallback:	
  2692                           ; 1 bytes @ 0x0
  2693                           
  2694  0070                     ??_I2C1_StatusCallback:	
  2695                           ; 1 bytes @ 0x0
  2696                           
  2697  0070                     ?_TMR1_DefaultInterruptHandler:	
  2698                           ; 1 bytes @ 0x0
  2699                           
  2700  0070                     ??_TMR1_DefaultInterruptHandler:	
  2701                           ; 1 bytes @ 0x0
  2702                           
  2703  0070                     ?_TMR0_Initialize:	
  2704                           ; 1 bytes @ 0x0
  2705                           
  2706  0070                     ?_TMR0_StartTimer:	
  2707                           ; 1 bytes @ 0x0
  2708                           
  2709  0070                     ?_TMR0_ISR:	
  2710                           ; 1 bytes @ 0x0
  2711                           
  2712  0070                     ??_TMR0_ISR:	
  2713                           ; 1 bytes @ 0x0
  2714                           
  2715  0070                     ?_INTERRUPT_InterruptManager:	
  2716                           ; 1 bytes @ 0x0
  2717                           
  2718  0070                     ?_SYSTEM_Initialize:	
  2719                           ; 1 bytes @ 0x0
  2720                           
  2721  0070                     ?_TMR1_StartTimer:	
  2722                           ; 1 bytes @ 0x0
  2723                           
  2724  0070                     ?_TMR1_WriteTimer:	
  2725                           ; 1 bytes @ 0x0
  2726                           
  2727  0070                     ?_main:	
  2728                           ; 1 bytes @ 0x0
  2729                           
  2730  0070                     TMR1_WriteTimer@timerVal:	
  2731                           ; 1 bytes @ 0x0
  2732                           
  2733                           
  2734                           ; 2 bytes @ 0x0
  2735  0070                     	ds	1
  2736  0071                     I2C1_StatusCallback@i2c_bus_state:	
  2737                           
  2738                           ; 1 bytes @ 0x1
  2739  0071                     	ds	1
  2740  0072                     ??_TMR1_ISR:	
  2741  0072                     ??_I2C1_ISR:	
  2742                           ; 1 bytes @ 0x2
  2743                           
  2744  0072                     ??_TMR1_WriteTimer:	
  2745                           ; 1 bytes @ 0x2
  2746                           
  2747                           
  2748                           ; 1 bytes @ 0x2
  2749  0072                     	ds	1
  2750  0073                     I2C1_ISR@i2c_data:	
  2751                           
  2752                           ; 1 bytes @ 0x3
  2753  0073                     	ds	1
  2754  0074                     ??_INTERRUPT_InterruptManager:	
  2755                           
  2756                           ; 1 bytes @ 0x4
  2757  0074                     	ds	1
  2758                           
  2759                           	psect	cstackBANK0
  2760  0020                     __pcstackBANK0:	
  2761  0020                     ?_TMR0_SetInterruptHandler:	
  2762  0020                     ??_PMD_Initialize:	
  2763                           ; 1 bytes @ 0x0
  2764                           
  2765  0020                     ??_PIN_MANAGER_Initialize:	
  2766                           ; 1 bytes @ 0x0
  2767                           
  2768  0020                     ??_OSCILLATOR_Initialize:	
  2769                           ; 1 bytes @ 0x0
  2770                           
  2771  0020                     ??_I2C1_Initialize:	
  2772                           ; 1 bytes @ 0x0
  2773                           
  2774  0020                     ??_ADC_Initialize:	
  2775                           ; 1 bytes @ 0x0
  2776                           
  2777  0020                     ?_TMR1_SetInterruptHandler:	
  2778                           ; 1 bytes @ 0x0
  2779                           
  2780  0020                     ??_TMR0_StartTimer:	
  2781                           ; 1 bytes @ 0x0
  2782                           
  2783  0020                     ??_TMR1_StartTimer:	
  2784                           ; 1 bytes @ 0x0
  2785                           
  2786  0020                     ?_ADC_GetConversion:	
  2787                           ; 1 bytes @ 0x0
  2788                           
  2789  0020                     ?___lwdiv:	
  2790                           ; 2 bytes @ 0x0
  2791                           
  2792  0020                     TMR0_SetInterruptHandler@InterruptHandler:	
  2793                           ; 2 bytes @ 0x0
  2794                           
  2795  0020                     TMR1_SetInterruptHandler@InterruptHandler:	
  2796                           ; 2 bytes @ 0x0
  2797                           
  2798  0020                     ___lwdiv@divisor:	
  2799                           ; 2 bytes @ 0x0
  2800                           
  2801                           
  2802                           ; 2 bytes @ 0x0
  2803  0020                     	ds	2
  2804  0022                     ??_TMR0_SetInterruptHandler:	
  2805  0022                     ??_TMR1_Initialize:	
  2806                           ; 1 bytes @ 0x2
  2807                           
  2808  0022                     ??_TMR1_SetInterruptHandler:	
  2809                           ; 1 bytes @ 0x2
  2810                           
  2811  0022                     ??_ADC_GetConversion:	
  2812                           ; 1 bytes @ 0x2
  2813                           
  2814  0022                     ??_TMR0_Initialize:	
  2815                           ; 1 bytes @ 0x2
  2816                           
  2817  0022                     ??_SYSTEM_Initialize:	
  2818                           ; 1 bytes @ 0x2
  2819                           
  2820  0022                     ___lwdiv@dividend:	
  2821                           ; 1 bytes @ 0x2
  2822                           
  2823                           
  2824                           ; 2 bytes @ 0x2
  2825  0022                     	ds	1
  2826  0023                     ADC_GetConversion@channel:	
  2827                           
  2828                           ; 1 bytes @ 0x3
  2829  0023                     	ds	1
  2830  0024                     ??___lwdiv:	
  2831                           
  2832                           ; 1 bytes @ 0x4
  2833  0024                     	ds	1
  2834  0025                     ___lwdiv@counter:	
  2835                           
  2836                           ; 1 bytes @ 0x5
  2837  0025                     	ds	1
  2838  0026                     ___lwdiv@quotient:	
  2839                           
  2840                           ; 2 bytes @ 0x6
  2841  0026                     	ds	2
  2842  0028                     ??_main:	
  2843                           
  2844                           ; 1 bytes @ 0x8
  2845  0028                     	ds	1
  2846  0029                     main@picTemperature:	
  2847                           
  2848                           ; 2 bytes @ 0x9
  2849  0029                     	ds	2
  2850                           
  2851                           	psect	maintext
  2852  0044                     __pmaintext:	
  2853 ;;
  2854 ;;Main: autosize = 0, tempsize = 1, incstack = 0, save=0
  2855 ;;
  2856 ;; *************** function _main *****************
  2857 ;; Defined at:
  2858 ;;		line 49 in file "main.c"
  2859 ;; Parameters:    Size  Location     Type
  2860 ;;		None
  2861 ;; Auto vars:     Size  Location     Type
  2862 ;;  picTemperatu    2    9[BANK0 ] unsigned int 
  2863 ;; Return value:  Size  Location     Type
  2864 ;;                  1    wreg      void 
  2865 ;; Registers used:
  2866 ;;		wreg, status,2, status,0, pclath, cstack
  2867 ;; Tracked objects:
  2868 ;;		On entry : B3F/0
  2869 ;;		On exit  : 0/0
  2870 ;;		Unchanged: 0/0
  2871 ;; Data sizes:     COMMON   BANK0   BANK1   BANK2   BANK3   BANK4   BANK5   BANK6
  2872 ;;      Params:         0       0       0       0       0       0       0       0
  2873 ;;      Locals:         0       2       0       0       0       0       0       0
  2874 ;;      Temps:          0       1       0       0       0       0       0       0
  2875 ;;      Totals:         0       3       0       0       0       0       0       0
  2876 ;;Total ram usage:        3 bytes
  2877 ;; Hardware stack levels required when called:    6
  2878 ;; This function calls:
  2879 ;;		_ADC_GetConversion
  2880 ;;		_SYSTEM_Initialize
  2881 ;;		_TMR0_StartTimer
  2882 ;;		_TMR1_StartTimer
  2883 ;;		___lwdiv
  2884 ;; This function is called by:
  2885 ;;		Startup code after reset
  2886 ;; This function uses a non-reentrant model
  2887 ;;
  2888                           
  2889                           
  2890                           ;psect for function _main
  2891  0044                     _main:	
  2892                           
  2893                           ;main.c: 52: SYSTEM_Initialize();
  2894                           
  2895                           ;incstack = 0
  2896                           ; Regs used in _main: [wreg+status,2+status,0+pclath+cstack]
  2897  0044  3181  21CF  3180   	fcall	_SYSTEM_Initialize
  2898                           
  2899                           ;main.c: 58: (INTCONbits.GIE = 1);
  2900  0047  178B               	bsf	11,7	;volatile
  2901                           
  2902                           ;main.c: 61: (INTCONbits.PEIE = 1);
  2903  0048  170B               	bsf	11,6	;volatile
  2904                           
  2905                           ;main.c: 69: TMR0_StartTimer();
  2906  0049  3182  2259  3180   	fcall	_TMR0_StartTimer
  2907                           
  2908                           ;main.c: 70: TMR1_StartTimer();
  2909  004C  3182  2256  3180   	fcall	_TMR1_StartTimer
  2910                           
  2911                           ;main.c: 72: uint16_t picTemperature = 0;
  2912  004F  0140               	movlb	0	; select bank0
  2913  0050  01A9               	clrf	main@picTemperature
  2914  0051  01AA               	clrf	main@picTemperature+1
  2915  0052                     l1609:	
  2916                           ;main.c: 74: while (1)
  2917                           
  2918                           
  2919                           ;main.c: 75: {
  2920                           ;main.c: 77: picTemperature = ADC_GetConversion(channel_Temp);
  2921  0052  303C               	movlw	60
  2922  0053  3181  215F  3180   	fcall	_ADC_GetConversion
  2923  0056  0140               	movlb	0	; select bank0
  2924  0057  0821               	movf	?_ADC_GetConversion+1,w
  2925  0058  00AA               	movwf	main@picTemperature+1
  2926  0059  0820               	movf	?_ADC_GetConversion,w
  2927  005A  00A9               	movwf	main@picTemperature
  2928                           
  2929                           ;main.c: 79: EEPROM_Buffer[6] = picTemperature/10;
  2930  005B  300A               	movlw	10
  2931  005C  00A0               	movwf	___lwdiv@divisor
  2932  005D  3000               	movlw	0
  2933  005E  00A1               	movwf	___lwdiv@divisor+1
  2934  005F  082A               	movf	main@picTemperature+1,w
  2935  0060  00A3               	movwf	___lwdiv@dividend+1
  2936  0061  0829               	movf	main@picTemperature,w
  2937  0062  00A2               	movwf	___lwdiv@dividend
  2938  0063  3181  2108  3180   	fcall	___lwdiv
  2939  0066  0140               	movlb	0	; select bank0
  2940  0067  0820               	movf	?___lwdiv,w
  2941  0068  00A8               	movwf	??_main
  2942  0069  0828               	movf	??_main,w
  2943  006A  00B1               	movwf	_EEPROM_Buffer+6	;volatile
  2944                           
  2945                           ;main.c: 82: if(EEPROM_Buffer[0])
  2946  006B  082B               	movf	_EEPROM_Buffer,w	;volatile
  2947  006C  1903               	btfsc	3,2
  2948  006D  2881               	goto	l1627
  2949                           
  2950                           ;main.c: 83: {
  2951                           ;main.c: 84: if (time == 0)
  2952  006E  0837               	movf	_time,w	;volatile
  2953  006F  1D03               	btfss	3,2
  2954  0070  2874               	goto	l1619
  2955                           
  2956                           ;main.c: 85: {
  2957                           ;main.c: 86: LATAbits.LATA4 = 0;
  2958  0071  1218               	bcf	24,4	;volatile
  2959                           
  2960                           ;main.c: 87: LATCbits.LATC5 = 0;
  2961  0072  129A               	bcf	26,5	;volatile
  2962                           
  2963                           ;main.c: 88: LATCbits.LATC4 = 1;
  2964  0073  161A               	bsf	26,4	;volatile
  2965  0074                     l1619:	
  2966                           
  2967                           ;main.c: 89: }
  2968                           ;main.c: 90: if (time == 1)
  2969  0074  0337               	decf	_time,w	;volatile
  2970  0075  1D03               	btfss	3,2
  2971  0076  287A               	goto	l1623
  2972                           
  2973                           ;main.c: 91: {
  2974                           ;main.c: 92: LATAbits.LATA4 = 0;
  2975  0077  1218               	bcf	24,4	;volatile
  2976                           
  2977                           ;main.c: 93: LATCbits.LATC5 = 1;
  2978  0078  169A               	bsf	26,5	;volatile
  2979                           
  2980                           ;main.c: 94: LATCbits.LATC4 = 0;
  2981  0079  121A               	bcf	26,4	;volatile
  2982  007A                     l1623:	
  2983                           
  2984                           ;main.c: 95: }
  2985                           ;main.c: 96: if (time == 2)
  2986  007A  3002               	movlw	2
  2987  007B  0637               	xorwf	_time,w	;volatile
  2988  007C  1D03               	btfss	3,2
  2989  007D  2881               	goto	l1627
  2990                           
  2991                           ;main.c: 97: {
  2992                           ;main.c: 98: LATAbits.LATA4 = 1;
  2993  007E  1618               	bsf	24,4	;volatile
  2994                           
  2995                           ;main.c: 99: LATCbits.LATC5 = 0;
  2996  007F  129A               	bcf	26,5	;volatile
  2997                           
  2998                           ;main.c: 100: LATCbits.LATC4 = 0;
  2999  0080  121A               	bcf	26,4	;volatile
  3000  0081                     l1627:	
  3001                           
  3002                           ;main.c: 101: }
  3003                           ;main.c: 102: }
  3004                           ;main.c: 105: if(EEPROM_Buffer[1])
  3005  0081  082C               	movf	_EEPROM_Buffer+1,w	;volatile
  3006  0082  1903               	btfsc	3,2
  3007  0083  2897               	goto	l1641
  3008                           
  3009                           ;main.c: 106: {
  3010                           ;main.c: 107: if (time == 0)
  3011  0084  0837               	movf	_time,w	;volatile
  3012  0085  1D03               	btfss	3,2
  3013  0086  288A               	goto	l1633
  3014                           
  3015                           ;main.c: 108: {
  3016                           ;main.c: 109: LATAbits.LATA2 = 0;
  3017  0087  1118               	bcf	24,2	;volatile
  3018                           
  3019                           ;main.c: 110: LATCbits.LATC0 = 0;
  3020  0088  101A               	bcf	26,0	;volatile
  3021                           
  3022                           ;main.c: 111: LATCbits.LATC1 = 1;
  3023  0089  149A               	bsf	26,1	;volatile
  3024  008A                     l1633:	
  3025                           
  3026                           ;main.c: 112: }
  3027                           ;main.c: 113: if (time == 1)
  3028  008A  0337               	decf	_time,w	;volatile
  3029  008B  1D03               	btfss	3,2
  3030  008C  2890               	goto	l1637
  3031                           
  3032                           ;main.c: 114: {
  3033                           ;main.c: 115: LATAbits.LATA2 = 0;
  3034  008D  1118               	bcf	24,2	;volatile
  3035                           
  3036                           ;main.c: 116: LATCbits.LATC0 = 1;
  3037  008E  141A               	bsf	26,0	;volatile
  3038                           
  3039                           ;main.c: 117: LATCbits.LATC1 = 0;
  3040  008F  109A               	bcf	26,1	;volatile
  3041  0090                     l1637:	
  3042                           
  3043                           ;main.c: 118: }
  3044                           ;main.c: 119: if (time == 2)
  3045  0090  3002               	movlw	2
  3046  0091  0637               	xorwf	_time,w	;volatile
  3047  0092  1D03               	btfss	3,2
  3048  0093  2897               	goto	l1641
  3049                           
  3050                           ;main.c: 120: {
  3051                           ;main.c: 121: LATAbits.LATA2 = 1;
  3052  0094  1518               	bsf	24,2	;volatile
  3053                           
  3054                           ;main.c: 122: LATCbits.LATC0 = 0;
  3055  0095  101A               	bcf	26,0	;volatile
  3056                           
  3057                           ;main.c: 123: LATCbits.LATC1 = 0;
  3058  0096  109A               	bcf	26,1	;volatile
  3059  0097                     l1641:	
  3060                           
  3061                           ;main.c: 124: }
  3062                           ;main.c: 125: }
  3063                           ;main.c: 127: if(EEPROM_Buffer[2])
  3064  0097  082D               	movf	_EEPROM_Buffer+2,w	;volatile
  3065  0098  1903               	btfsc	3,2
  3066  0099  28A5               	goto	l1649
  3067                           
  3068                           ;main.c: 128: {
  3069                           ;main.c: 129: if(EEPROM_Buffer[4])
  3070  009A  082F               	movf	_EEPROM_Buffer+4,w	;volatile
  3071  009B  1903               	btfsc	3,2
  3072  009C  28A3               	goto	l331
  3073                           
  3074                           ;main.c: 130: {
  3075                           ;main.c: 131: LATCbits.LATC2 = flashtaillight;
  3076  009D  0C36               	rrf	_flashtaillight,w	;volatile
  3077  009E  1C03               	skipc
  3078  009F  111A               	bcf	26,2	;volatile
  3079  00A0  1803               	skipnc
  3080  00A1  151A               	bsf	26,2	;volatile
  3081  00A2  28A4               	goto	L1
  3082  00A3                     l331:	
  3083                           ;main.c: 133: }
  3084                           
  3085                           ;main.c: 132: LATCbits.LATC3 = 1;
  3086                           
  3087                           
  3088                           ;main.c: 134: else
  3089                           ;main.c: 135: {
  3090                           ;main.c: 136: LATCbits.LATC2 = 0;
  3091  00A3  111A               	bcf	26,2	;volatile
  3092  00A4                     L1:	
  3093                           
  3094                           ;main.c: 137: LATCbits.LATC3 = 1;
  3095  00A4  159A               	bsf	26,3	;volatile
  3096  00A5                     l1649:	
  3097                           
  3098                           ;main.c: 138: }
  3099                           ;main.c: 139: }
  3100                           ;main.c: 141: if(EEPROM_Buffer[3])
  3101  00A5  082E               	movf	_EEPROM_Buffer+3,w	;volatile
  3102  00A6  1D03               	btfss	3,2
  3103                           
  3104                           ;main.c: 142: {
  3105                           ;main.c: 143: LATAbits.LATA5 = 1;
  3106  00A7  1698               	bsf	24,5	;volatile
  3107                           
  3108                           ;main.c: 144: }
  3109                           ;main.c: 148: if(!EEPROM_Buffer[0])
  3110  00A8  082B               	movf	_EEPROM_Buffer,w	;volatile
  3111  00A9  1D03               	btfss	3,2
  3112  00AA  28AE               	goto	l1657
  3113                           
  3114                           ;main.c: 149: {
  3115                           ;main.c: 150: LATAbits.LATA4 = 0;
  3116  00AB  1218               	bcf	24,4	;volatile
  3117                           
  3118                           ;main.c: 151: LATCbits.LATC5 = 0;
  3119  00AC  129A               	bcf	26,5	;volatile
  3120                           
  3121                           ;main.c: 152: LATCbits.LATC4 = 0;
  3122  00AD  121A               	bcf	26,4	;volatile
  3123  00AE                     l1657:	
  3124                           
  3125                           ;main.c: 153: }
  3126                           ;main.c: 155: if(!EEPROM_Buffer[1])
  3127  00AE  082C               	movf	_EEPROM_Buffer+1,w	;volatile
  3128  00AF  1D03               	btfss	3,2
  3129  00B0  28B4               	goto	l1661
  3130                           
  3131                           ;main.c: 156: {
  3132                           ;main.c: 157: LATAbits.LATA2 = 0;
  3133  00B1  1118               	bcf	24,2	;volatile
  3134                           
  3135                           ;main.c: 158: LATCbits.LATC0 = 0;
  3136  00B2  101A               	bcf	26,0	;volatile
  3137                           
  3138                           ;main.c: 159: LATCbits.LATC1 = 0;
  3139  00B3  109A               	bcf	26,1	;volatile
  3140  00B4                     l1661:	
  3141                           
  3142                           ;main.c: 160: }
  3143                           ;main.c: 162: if(!EEPROM_Buffer[2])
  3144  00B4  082D               	movf	_EEPROM_Buffer+2,w	;volatile
  3145  00B5  1903               	btfsc	3,2
  3146                           
  3147                           ;main.c: 163: {
  3148                           ;main.c: 164: LATCbits.LATC3 = 0;
  3149  00B6  119A               	bcf	26,3	;volatile
  3150                           
  3151                           ;main.c: 165: }
  3152                           ;main.c: 167: if(!EEPROM_Buffer[3])
  3153  00B7  082E               	movf	_EEPROM_Buffer+3,w	;volatile
  3154  00B8  1903               	btfsc	3,2
  3155                           
  3156                           ;main.c: 168: {
  3157                           ;main.c: 169: LATAbits.LATA5 = 0;
  3158  00B9  1298               	bcf	24,5	;volatile
  3159                           
  3160                           ;main.c: 170: }
  3161                           ;main.c: 173: if((!EEPROM_Buffer[0]) && (!EEPROM_Buffer[1]) ) time = 0;
  3162  00BA  082B               	movf	_EEPROM_Buffer,w	;volatile
  3163  00BB  1D03               	btfss	3,2
  3164  00BC  2852               	goto	l1609
  3165  00BD  082C               	movf	_EEPROM_Buffer+1,w	;volatile
  3166  00BE  1D03               	btfss	3,2
  3167  00BF  2852               	goto	l1609
  3168  00C0  01B7               	clrf	_time	;volatile
  3169  00C1  2852               	goto	l1609
  3170  00C2                     __end_of_main:	
  3171                           
  3172                           	psect	text1
  3173  0108                     __ptext1:	
  3174 ;; *************** function ___lwdiv *****************
  3175 ;; Defined at:
  3176 ;;		line 6 in file "C:\Program Files (x86)\Microchip\xc8\v1.45\sources\common\lwdiv.c"
  3177 ;; Parameters:    Size  Location     Type
  3178 ;;  divisor         2    0[BANK0 ] unsigned int 
  3179 ;;  dividend        2    2[BANK0 ] unsigned int 
  3180 ;; Auto vars:     Size  Location     Type
  3181 ;;  quotient        2    6[BANK0 ] unsigned int 
  3182 ;;  counter         1    5[BANK0 ] unsigned char 
  3183 ;; Return value:  Size  Location     Type
  3184 ;;                  2    0[BANK0 ] unsigned int 
  3185 ;; Registers used:
  3186 ;;		wreg, status,2, status,0
  3187 ;; Tracked objects:
  3188 ;;		On entry : 0/0
  3189 ;;		On exit  : 0/0
  3190 ;;		Unchanged: 0/0
  3191 ;; Data sizes:     COMMON   BANK0   BANK1   BANK2   BANK3   BANK4   BANK5   BANK6
  3192 ;;      Params:         0       4       0       0       0       0       0       0
  3193 ;;      Locals:         0       3       0       0       0       0       0       0
  3194 ;;      Temps:          0       1       0       0       0       0       0       0
  3195 ;;      Totals:         0       8       0       0       0       0       0       0
  3196 ;;Total ram usage:        8 bytes
  3197 ;; Hardware stack levels used:    1
  3198 ;; Hardware stack levels required when called:    3
  3199 ;; This function calls:
  3200 ;;		Nothing
  3201 ;; This function is called by:
  3202 ;;		_main
  3203 ;; This function uses a non-reentrant model
  3204 ;;
  3205                           
  3206                           
  3207                           ;psect for function ___lwdiv
  3208  0108                     ___lwdiv:	
  3209                           
  3210                           ;incstack = 0
  3211                           ; Regs used in ___lwdiv: [wreg+status,2+status,0]
  3212  0108  0140               	movlb	0	; select bank0
  3213  0109  01A6               	clrf	___lwdiv@quotient
  3214  010A  01A7               	clrf	___lwdiv@quotient+1
  3215  010B  0820               	movf	___lwdiv@divisor,w
  3216  010C  0421               	iorwf	___lwdiv@divisor+1,w
  3217  010D  1903               	btfsc	3,2
  3218  010E  2938               	goto	l1593
  3219  010F  01A5               	clrf	___lwdiv@counter
  3220  0110  0AA5               	incf	___lwdiv@counter,f
  3221  0111                     l1581:	
  3222  0111  1BA1               	btfsc	___lwdiv@divisor+1,7
  3223  0112  291D               	goto	l1583
  3224  0113  3001               	movlw	1
  3225  0114                     u895:	
  3226  0114  35A0               	lslf	___lwdiv@divisor,f
  3227  0115  0DA1               	rlf	___lwdiv@divisor+1,f
  3228  0116  0B89               	decfsz	9,f
  3229  0117  2914               	goto	u895
  3230  0118  3001               	movlw	1
  3231  0119  00A4               	movwf	??___lwdiv
  3232  011A  0824               	movf	??___lwdiv,w
  3233  011B  07A5               	addwf	___lwdiv@counter,f
  3234  011C  2911               	goto	l1581
  3235  011D                     l1583:	
  3236  011D  3001               	movlw	1
  3237  011E                     u915:	
  3238  011E  35A6               	lslf	___lwdiv@quotient,f
  3239  011F  0DA7               	rlf	___lwdiv@quotient+1,f
  3240  0120  0B89               	decfsz	9,f
  3241  0121  291E               	goto	u915
  3242  0122  0821               	movf	___lwdiv@divisor+1,w
  3243  0123  0223               	subwf	___lwdiv@dividend+1,w
  3244  0124  1D03               	skipz
  3245  0125  2928               	goto	u925
  3246  0126  0820               	movf	___lwdiv@divisor,w
  3247  0127  0222               	subwf	___lwdiv@dividend,w
  3248  0128                     u925:	
  3249  0128  1C03               	skipc
  3250  0129  292F               	goto	l1589
  3251  012A  0820               	movf	___lwdiv@divisor,w
  3252  012B  02A2               	subwf	___lwdiv@dividend,f
  3253  012C  0821               	movf	___lwdiv@divisor+1,w
  3254  012D  3BA3               	subwfb	___lwdiv@dividend+1,f
  3255  012E  1426               	bsf	___lwdiv@quotient,0
  3256  012F                     l1589:	
  3257  012F  3001               	movlw	1
  3258  0130                     u935:	
  3259  0130  36A1               	lsrf	___lwdiv@divisor+1,f
  3260  0131  0CA0               	rrf	___lwdiv@divisor,f
  3261  0132  0B89               	decfsz	9,f
  3262  0133  2930               	goto	u935
  3263  0134  3001               	movlw	1
  3264  0135  02A5               	subwf	___lwdiv@counter,f
  3265  0136  1D03               	btfss	3,2
  3266  0137  291D               	goto	l1583
  3267  0138                     l1593:	
  3268  0138  0827               	movf	___lwdiv@quotient+1,w
  3269  0139  00A1               	movwf	?___lwdiv+1
  3270  013A  0826               	movf	___lwdiv@quotient,w
  3271  013B  00A0               	movwf	?___lwdiv
  3272  013C  0008               	return
  3273  013D                     __end_of___lwdiv:	
  3274                           
  3275                           	psect	text2
  3276  0256                     __ptext2:	
  3277 ;; *************** function _TMR1_StartTimer *****************
  3278 ;; Defined at:
  3279 ;;		line 99 in file "mcc_generated_files/tmr1.c"
  3280 ;; Parameters:    Size  Location     Type
  3281 ;;		None
  3282 ;; Auto vars:     Size  Location     Type
  3283 ;;		None
  3284 ;; Return value:  Size  Location     Type
  3285 ;;                  1    wreg      void 
  3286 ;; Registers used:
  3287 ;;		None
  3288 ;; Tracked objects:
  3289 ;;		On entry : 0/0
  3290 ;;		On exit  : 0/0
  3291 ;;		Unchanged: 0/0
  3292 ;; Data sizes:     COMMON   BANK0   BANK1   BANK2   BANK3   BANK4   BANK5   BANK6
  3293 ;;      Params:         0       0       0       0       0       0       0       0
  3294 ;;      Locals:         0       0       0       0       0       0       0       0
  3295 ;;      Temps:          0       0       0       0       0       0       0       0
  3296 ;;      Totals:         0       0       0       0       0       0       0       0
  3297 ;;Total ram usage:        0 bytes
  3298 ;; Hardware stack levels used:    1
  3299 ;; Hardware stack levels required when called:    3
  3300 ;; This function calls:
  3301 ;;		Nothing
  3302 ;; This function is called by:
  3303 ;;		_main
  3304 ;; This function uses a non-reentrant model
  3305 ;;
  3306                           
  3307                           
  3308                           ;psect for function _TMR1_StartTimer
  3309  0256                     _TMR1_StartTimer:	
  3310                           
  3311                           ;tmr1.c: 102: T1CONbits.TMR1ON = 1;
  3312                           
  3313                           ;incstack = 0
  3314                           ; Regs used in _TMR1_StartTimer: []
  3315  0256  0144               	movlb	4	; select bank4
  3316  0257  140E               	bsf	14,0	;volatile
  3317  0258  0008               	return
  3318  0259                     __end_of_TMR1_StartTimer:	
  3319                           
  3320                           	psect	text3
  3321  0259                     __ptext3:	
  3322 ;; *************** function _TMR0_StartTimer *****************
  3323 ;; Defined at:
  3324 ;;		line 89 in file "mcc_generated_files/tmr0.c"
  3325 ;; Parameters:    Size  Location     Type
  3326 ;;		None
  3327 ;; Auto vars:     Size  Location     Type
  3328 ;;		None
  3329 ;; Return value:  Size  Location     Type
  3330 ;;                  1    wreg      void 
  3331 ;; Registers used:
  3332 ;;		None
  3333 ;; Tracked objects:
  3334 ;;		On entry : 0/0
  3335 ;;		On exit  : 0/0
  3336 ;;		Unchanged: 0/0
  3337 ;; Data sizes:     COMMON   BANK0   BANK1   BANK2   BANK3   BANK4   BANK5   BANK6
  3338 ;;      Params:         0       0       0       0       0       0       0       0
  3339 ;;      Locals:         0       0       0       0       0       0       0       0
  3340 ;;      Temps:          0       0       0       0       0       0       0       0
  3341 ;;      Totals:         0       0       0       0       0       0       0       0
  3342 ;;Total ram usage:        0 bytes
  3343 ;; Hardware stack levels used:    1
  3344 ;; Hardware stack levels required when called:    3
  3345 ;; This function calls:
  3346 ;;		Nothing
  3347 ;; This function is called by:
  3348 ;;		_main
  3349 ;; This function uses a non-reentrant model
  3350 ;;
  3351                           
  3352                           
  3353                           ;psect for function _TMR0_StartTimer
  3354  0259                     _TMR0_StartTimer:	
  3355                           
  3356                           ;tmr0.c: 92: T0CON0bits.T0EN = 1;
  3357                           
  3358                           ;incstack = 0
  3359                           ; Regs used in _TMR0_StartTimer: []
  3360  0259  014B               	movlb	11	; select bank11
  3361  025A  179E               	bsf	30,7	;volatile
  3362  025B  0008               	return
  3363  025C                     __end_of_TMR0_StartTimer:	
  3364                           
  3365                           	psect	text4
  3366  01CF                     __ptext4:	
  3367 ;; *************** function _SYSTEM_Initialize *****************
  3368 ;; Defined at:
  3369 ;;		line 50 in file "mcc_generated_files/mcc.c"
  3370 ;; Parameters:    Size  Location     Type
  3371 ;;		None
  3372 ;; Auto vars:     Size  Location     Type
  3373 ;;		None
  3374 ;; Return value:  Size  Location     Type
  3375 ;;                  1    wreg      void 
  3376 ;; Registers used:
  3377 ;;		wreg, status,2, status,0, pclath, cstack
  3378 ;; Tracked objects:
  3379 ;;		On entry : 0/0
  3380 ;;		On exit  : 0/0
  3381 ;;		Unchanged: 0/0
  3382 ;; Data sizes:     COMMON   BANK0   BANK1   BANK2   BANK3   BANK4   BANK5   BANK6
  3383 ;;      Params:         0       0       0       0       0       0       0       0
  3384 ;;      Locals:         0       0       0       0       0       0       0       0
  3385 ;;      Temps:          0       0       0       0       0       0       0       0
  3386 ;;      Totals:         0       0       0       0       0       0       0       0
  3387 ;;Total ram usage:        0 bytes
  3388 ;; Hardware stack levels used:    1
  3389 ;; Hardware stack levels required when called:    5
  3390 ;; This function calls:
  3391 ;;		_ADC_Initialize
  3392 ;;		_I2C1_Initialize
  3393 ;;		_OSCILLATOR_Initialize
  3394 ;;		_PIN_MANAGER_Initialize
  3395 ;;		_PMD_Initialize
  3396 ;;		_TMR0_Initialize
  3397 ;;		_TMR1_Initialize
  3398 ;; This function is called by:
  3399 ;;		_main
  3400 ;; This function uses a non-reentrant model
  3401 ;;
  3402                           
  3403                           
  3404                           ;psect for function _SYSTEM_Initialize
  3405  01CF                     _SYSTEM_Initialize:	
  3406                           
  3407                           ;mcc.c: 52: PMD_Initialize();
  3408                           
  3409                           ;incstack = 0
  3410                           ; Regs used in _SYSTEM_Initialize: [wreg+status,2+status,0+pclath+cstack]
  3411  01CF  3182  222D  3181   	fcall	_PMD_Initialize
  3412                           
  3413                           ;mcc.c: 53: PIN_MANAGER_Initialize();
  3414  01D2  3181  217E  3181   	fcall	_PIN_MANAGER_Initialize
  3415                           
  3416                           ;mcc.c: 54: OSCILLATOR_Initialize();
  3417  01D5  3182  2223  3181   	fcall	_OSCILLATOR_Initialize
  3418                           
  3419                           ;mcc.c: 55: I2C1_Initialize();
  3420  01D8  3181  21F8  3181   	fcall	_I2C1_Initialize
  3421                           
  3422                           ;mcc.c: 56: ADC_Initialize();
  3423  01DB  3182  2235  3181   	fcall	_ADC_Initialize
  3424                           
  3425                           ;mcc.c: 57: TMR1_Initialize();
  3426  01DE  3181  219C  3181   	fcall	_TMR1_Initialize
  3427                           
  3428                           ;mcc.c: 58: TMR0_Initialize();
  3429  01E1  3181  21E4         	fcall	_TMR0_Initialize
  3430  01E3  0008               	return
  3431  01E4                     __end_of_SYSTEM_Initialize:	
  3432                           
  3433                           	psect	text5
  3434  019C                     __ptext5:	
  3435 ;; *************** function _TMR1_Initialize *****************
  3436 ;; Defined at:
  3437 ;;		line 64 in file "mcc_generated_files/tmr1.c"
  3438 ;; Parameters:    Size  Location     Type
  3439 ;;		None
  3440 ;; Auto vars:     Size  Location     Type
  3441 ;;		None
  3442 ;; Return value:  Size  Location     Type
  3443 ;;                  1    wreg      void 
  3444 ;; Registers used:
  3445 ;;		wreg, status,2, status,0, pclath, cstack
  3446 ;; Tracked objects:
  3447 ;;		On entry : 0/0
  3448 ;;		On exit  : 0/0
  3449 ;;		Unchanged: 0/0
  3450 ;; Data sizes:     COMMON   BANK0   BANK1   BANK2   BANK3   BANK4   BANK5   BANK6
  3451 ;;      Params:         0       0       0       0       0       0       0       0
  3452 ;;      Locals:         0       0       0       0       0       0       0       0
  3453 ;;      Temps:          0       0       0       0       0       0       0       0
  3454 ;;      Totals:         0       0       0       0       0       0       0       0
  3455 ;;Total ram usage:        0 bytes
  3456 ;; Hardware stack levels used:    1
  3457 ;; Hardware stack levels required when called:    4
  3458 ;; This function calls:
  3459 ;;		_TMR1_SetInterruptHandler
  3460 ;; This function is called by:
  3461 ;;		_SYSTEM_Initialize
  3462 ;; This function uses a non-reentrant model
  3463 ;;
  3464                           
  3465                           
  3466                           ;psect for function _TMR1_Initialize
  3467  019C                     _TMR1_Initialize:	
  3468                           
  3469                           ;tmr1.c: 69: T1GCON = 0x00;
  3470                           
  3471                           ;incstack = 0
  3472                           ; Regs used in _TMR1_Initialize: [wreg+status,2+status,0+pclath+cstack]
  3473  019C  0144               	movlb	4	; select bank4
  3474  019D  018F               	clrf	15	;volatile
  3475                           
  3476                           ;tmr1.c: 72: T1GATE = 0x00;
  3477  019E  0190               	clrf	16	;volatile
  3478                           
  3479                           ;tmr1.c: 75: T1CLK = 0x04;
  3480  019F  3004               	movlw	4
  3481  01A0  0091               	movwf	17	;volatile
  3482                           
  3483                           ;tmr1.c: 78: TMR1H = 0xE7;
  3484  01A1  30E7               	movlw	231
  3485  01A2  008D               	movwf	13	;volatile
  3486                           
  3487                           ;tmr1.c: 81: TMR1L = 0xC8;
  3488  01A3  30C8               	movlw	200
  3489  01A4  008C               	movwf	12	;volatile
  3490                           
  3491                           ;tmr1.c: 84: timer1ReloadVal=(uint16_t)((TMR1H << 8) | TMR1L);
  3492  01A5  080D               	movf	13,w	;volatile
  3493  01A6  00F6               	movwf	_timer1ReloadVal+1	;volatile
  3494  01A7  080C               	movf	12,w	;volatile
  3495  01A8  00F5               	movwf	_timer1ReloadVal	;volatile
  3496                           
  3497                           ;tmr1.c: 87: PIR4bits.TMR1IF = 0;
  3498  01A9  014E               	movlb	14	; select bank14
  3499  01AA  1010               	bcf	16,0	;volatile
  3500                           
  3501                           ;tmr1.c: 90: PIE4bits.TMR1IE = 1;
  3502  01AB  141A               	bsf	26,0	;volatile
  3503                           
  3504                           ;tmr1.c: 93: TMR1_SetInterruptHandler(TMR1_DefaultInterruptHandler);
  3505  01AC  305D               	movlw	low _TMR1_DefaultInterruptHandler
  3506  01AD  0140               	movlb	0	; select bank0
  3507  01AE  00A0               	movwf	TMR1_SetInterruptHandler@InterruptHandler
  3508  01AF  3002               	movlw	high _TMR1_DefaultInterruptHandler
  3509  01B0  00A1               	movwf	TMR1_SetInterruptHandler@InterruptHandler+1
  3510  01B1  3182  224A         	fcall	_TMR1_SetInterruptHandler
  3511                           
  3512                           ;tmr1.c: 96: T1CON = 0x07;
  3513  01B3  3007               	movlw	7
  3514  01B4  0144               	movlb	4	; select bank4
  3515  01B5  008E               	movwf	14	;volatile
  3516  01B6  0008               	return
  3517  01B7                     __end_of_TMR1_Initialize:	
  3518                           
  3519                           	psect	text6
  3520  024A                     __ptext6:	
  3521 ;; *************** function _TMR1_SetInterruptHandler *****************
  3522 ;; Defined at:
  3523 ;;		line 178 in file "mcc_generated_files/tmr1.c"
  3524 ;; Parameters:    Size  Location     Type
  3525 ;;  InterruptHan    2    0[BANK0 ] PTR FTN()void 
  3526 ;;		 -> TMR1_DefaultInterruptHandler(1), 
  3527 ;; Auto vars:     Size  Location     Type
  3528 ;;		None
  3529 ;; Return value:  Size  Location     Type
  3530 ;;                  1    wreg      void 
  3531 ;; Registers used:
  3532 ;;		wreg
  3533 ;; Tracked objects:
  3534 ;;		On entry : 0/0
  3535 ;;		On exit  : 0/0
  3536 ;;		Unchanged: 0/0
  3537 ;; Data sizes:     COMMON   BANK0   BANK1   BANK2   BANK3   BANK4   BANK5   BANK6
  3538 ;;      Params:         0       2       0       0       0       0       0       0
  3539 ;;      Locals:         0       0       0       0       0       0       0       0
  3540 ;;      Temps:          0       0       0       0       0       0       0       0
  3541 ;;      Totals:         0       2       0       0       0       0       0       0
  3542 ;;Total ram usage:        2 bytes
  3543 ;; Hardware stack levels used:    1
  3544 ;; Hardware stack levels required when called:    3
  3545 ;; This function calls:
  3546 ;;		Nothing
  3547 ;; This function is called by:
  3548 ;;		_TMR1_Initialize
  3549 ;; This function uses a non-reentrant model
  3550 ;;
  3551                           
  3552                           
  3553                           ;psect for function _TMR1_SetInterruptHandler
  3554  024A                     _TMR1_SetInterruptHandler:	
  3555                           
  3556                           ;tmr1.c: 179: TMR1_InterruptHandler = InterruptHandler;
  3557                           
  3558                           ;incstack = 0
  3559                           ; Regs used in _TMR1_SetInterruptHandler: [wreg]
  3560  024A  0140               	movlb	0	; select bank0
  3561  024B  0821               	movf	TMR1_SetInterruptHandler@InterruptHandler+1,w
  3562  024C  00B3               	movwf	_TMR1_InterruptHandler+1
  3563  024D  0820               	movf	TMR1_SetInterruptHandler@InterruptHandler,w
  3564  024E  00B2               	movwf	_TMR1_InterruptHandler
  3565  024F  0008               	return
  3566  0250                     __end_of_TMR1_SetInterruptHandler:	
  3567                           
  3568                           	psect	text7
  3569  01E4                     __ptext7:	
  3570 ;; *************** function _TMR0_Initialize *****************
  3571 ;; Defined at:
  3572 ;;		line 63 in file "mcc_generated_files/tmr0.c"
  3573 ;; Parameters:    Size  Location     Type
  3574 ;;		None
  3575 ;; Auto vars:     Size  Location     Type
  3576 ;;		None
  3577 ;; Return value:  Size  Location     Type
  3578 ;;                  1    wreg      void 
  3579 ;; Registers used:
  3580 ;;		wreg, status,2, status,0, pclath, cstack
  3581 ;; Tracked objects:
  3582 ;;		On entry : 0/0
  3583 ;;		On exit  : 0/0
  3584 ;;		Unchanged: 0/0
  3585 ;; Data sizes:     COMMON   BANK0   BANK1   BANK2   BANK3   BANK4   BANK5   BANK6
  3586 ;;      Params:         0       0       0       0       0       0       0       0
  3587 ;;      Locals:         0       0       0       0       0       0       0       0
  3588 ;;      Temps:          0       0       0       0       0       0       0       0
  3589 ;;      Totals:         0       0       0       0       0       0       0       0
  3590 ;;Total ram usage:        0 bytes
  3591 ;; Hardware stack levels used:    1
  3592 ;; Hardware stack levels required when called:    4
  3593 ;; This function calls:
  3594 ;;		_TMR0_SetInterruptHandler
  3595 ;; This function is called by:
  3596 ;;		_SYSTEM_Initialize
  3597 ;; This function uses a non-reentrant model
  3598 ;;
  3599                           
  3600                           
  3601                           ;psect for function _TMR0_Initialize
  3602  01E4                     _TMR0_Initialize:	
  3603                           
  3604                           ;tmr0.c: 68: T0CON1 = 0x86;
  3605                           
  3606                           ;incstack = 0
  3607                           ; Regs used in _TMR0_Initialize: [wreg+status,2+status,0+pclath+cstack]
  3608  01E4  3086               	movlw	134
  3609  01E5  014B               	movlb	11	; select bank11
  3610  01E6  009F               	movwf	31	;volatile
  3611                           
  3612                           ;tmr0.c: 71: TMR0H = 0xF1;
  3613  01E7  30F1               	movlw	241
  3614  01E8  009D               	movwf	29	;volatile
  3615                           
  3616                           ;tmr0.c: 74: TMR0L = 0x00;
  3617  01E9  019C               	clrf	28	;volatile
  3618                           
  3619                           ;tmr0.c: 77: PIR0bits.TMR0IF = 0;
  3620  01EA  014E               	movlb	14	; select bank14
  3621  01EB  128C               	bcf	12,5	;volatile
  3622                           
  3623                           ;tmr0.c: 80: PIE0bits.TMR0IE = 1;
  3624  01EC  1696               	bsf	22,5	;volatile
  3625                           
  3626                           ;tmr0.c: 83: TMR0_SetInterruptHandler(TMR0_DefaultInterruptHandler);
  3627  01ED  3000               	movlw	0
  3628  01EE  0140               	movlb	0	; select bank0
  3629  01EF  00A0               	movwf	TMR0_SetInterruptHandler@InterruptHandler
  3630  01F0  3000               	movlw	0
  3631  01F1  00A1               	movwf	TMR0_SetInterruptHandler@InterruptHandler+1
  3632  01F2  3182  2250         	fcall	_TMR0_SetInterruptHandler
  3633                           
  3634                           ;tmr0.c: 86: T0CON0 = 0x80;
  3635  01F4  3080               	movlw	128
  3636  01F5  014B               	movlb	11	; select bank11
  3637  01F6  009E               	movwf	30	;volatile
  3638  01F7  0008               	return
  3639  01F8                     __end_of_TMR0_Initialize:	
  3640                           
  3641                           	psect	text8
  3642  0250                     __ptext8:	
  3643 ;; *************** function _TMR0_SetInterruptHandler *****************
  3644 ;; Defined at:
  3645 ;;		line 136 in file "mcc_generated_files/tmr0.c"
  3646 ;; Parameters:    Size  Location     Type
  3647 ;;  InterruptHan    2    0[BANK0 ] PTR FTN()void 
  3648 ;;		 -> TMR0_DefaultInterruptHandler(1), 
  3649 ;; Auto vars:     Size  Location     Type
  3650 ;;		None
  3651 ;; Return value:  Size  Location     Type
  3652 ;;                  1    wreg      void 
  3653 ;; Registers used:
  3654 ;;		wreg
  3655 ;; Tracked objects:
  3656 ;;		On entry : 0/0
  3657 ;;		On exit  : 0/0
  3658 ;;		Unchanged: 0/0
  3659 ;; Data sizes:     COMMON   BANK0   BANK1   BANK2   BANK3   BANK4   BANK5   BANK6
  3660 ;;      Params:         0       2       0       0       0       0       0       0
  3661 ;;      Locals:         0       0       0       0       0       0       0       0
  3662 ;;      Temps:          0       0       0       0       0       0       0       0
  3663 ;;      Totals:         0       2       0       0       0       0       0       0
  3664 ;;Total ram usage:        2 bytes
  3665 ;; Hardware stack levels used:    1
  3666 ;; Hardware stack levels required when called:    3
  3667 ;; This function calls:
  3668 ;;		Nothing
  3669 ;; This function is called by:
  3670 ;;		_TMR0_Initialize
  3671 ;; This function uses a non-reentrant model
  3672 ;;
  3673                           
  3674                           
  3675                           ;psect for function _TMR0_SetInterruptHandler
  3676  0250                     _TMR0_SetInterruptHandler:	
  3677                           
  3678                           ;tmr0.c: 137: TMR0_InterruptHandler = InterruptHandler;
  3679                           
  3680                           ;incstack = 0
  3681                           ; Regs used in _TMR0_SetInterruptHandler: [wreg]
  3682  0250  0140               	movlb	0	; select bank0
  3683  0251  0821               	movf	TMR0_SetInterruptHandler@InterruptHandler+1,w
  3684  0252  00B5               	movwf	_TMR0_InterruptHandler+1
  3685  0253  0820               	movf	TMR0_SetInterruptHandler@InterruptHandler,w
  3686  0254  00B4               	movwf	_TMR0_InterruptHandler
  3687  0255  0008               	return
  3688  0256                     __end_of_TMR0_SetInterruptHandler:	
  3689                           
  3690                           	psect	text9
  3691  022D                     __ptext9:	
  3692 ;; *************** function _PMD_Initialize *****************
  3693 ;; Defined at:
  3694 ;;		line 77 in file "mcc_generated_files/mcc.c"
  3695 ;; Parameters:    Size  Location     Type
  3696 ;;		None
  3697 ;; Auto vars:     Size  Location     Type
  3698 ;;		None
  3699 ;; Return value:  Size  Location     Type
  3700 ;;                  1    wreg      void 
  3701 ;; Registers used:
  3702 ;;		status,2
  3703 ;; Tracked objects:
  3704 ;;		On entry : 0/0
  3705 ;;		On exit  : 0/0
  3706 ;;		Unchanged: 0/0
  3707 ;; Data sizes:     COMMON   BANK0   BANK1   BANK2   BANK3   BANK4   BANK5   BANK6
  3708 ;;      Params:         0       0       0       0       0       0       0       0
  3709 ;;      Locals:         0       0       0       0       0       0       0       0
  3710 ;;      Temps:          0       0       0       0       0       0       0       0
  3711 ;;      Totals:         0       0       0       0       0       0       0       0
  3712 ;;Total ram usage:        0 bytes
  3713 ;; Hardware stack levels used:    1
  3714 ;; Hardware stack levels required when called:    3
  3715 ;; This function calls:
  3716 ;;		Nothing
  3717 ;; This function is called by:
  3718 ;;		_SYSTEM_Initialize
  3719 ;; This function uses a non-reentrant model
  3720 ;;
  3721                           
  3722                           
  3723                           ;psect for function _PMD_Initialize
  3724  022D                     _PMD_Initialize:	
  3725                           
  3726                           ;mcc.c: 80: PMD0 = 0x00;
  3727                           
  3728                           ;incstack = 0
  3729                           ; Regs used in _PMD_Initialize: [status,2]
  3730  022D  014F               	movlb	15	; select bank15
  3731  022E  0196               	clrf	22	;volatile
  3732                           
  3733                           ;mcc.c: 82: PMD1 = 0x00;
  3734  022F  0197               	clrf	23	;volatile
  3735                           
  3736                           ;mcc.c: 84: PMD2 = 0x00;
  3737  0230  0198               	clrf	24	;volatile
  3738                           
  3739                           ;mcc.c: 86: PMD3 = 0x00;
  3740  0231  0199               	clrf	25	;volatile
  3741                           
  3742                           ;mcc.c: 88: PMD4 = 0x00;
  3743  0232  019A               	clrf	26	;volatile
  3744                           
  3745                           ;mcc.c: 90: PMD5 = 0x00;
  3746  0233  019B               	clrf	27	;volatile
  3747  0234  0008               	return
  3748  0235                     __end_of_PMD_Initialize:	
  3749                           
  3750                           	psect	text10
  3751  017E                     __ptext10:	
  3752 ;; *************** function _PIN_MANAGER_Initialize *****************
  3753 ;; Defined at:
  3754 ;;		line 57 in file "mcc_generated_files/pin_manager.c"
  3755 ;; Parameters:    Size  Location     Type
  3756 ;;		None
  3757 ;; Auto vars:     Size  Location     Type
  3758 ;;		None
  3759 ;; Return value:  Size  Location     Type
  3760 ;;                  1    wreg      void 
  3761 ;; Registers used:
  3762 ;;		wreg, status,2
  3763 ;; Tracked objects:
  3764 ;;		On entry : 0/0
  3765 ;;		On exit  : 0/0
  3766 ;;		Unchanged: 0/0
  3767 ;; Data sizes:     COMMON   BANK0   BANK1   BANK2   BANK3   BANK4   BANK5   BANK6
  3768 ;;      Params:         0       0       0       0       0       0       0       0
  3769 ;;      Locals:         0       0       0       0       0       0       0       0
  3770 ;;      Temps:          0       0       0       0       0       0       0       0
  3771 ;;      Totals:         0       0       0       0       0       0       0       0
  3772 ;;Total ram usage:        0 bytes
  3773 ;; Hardware stack levels used:    1
  3774 ;; Hardware stack levels required when called:    3
  3775 ;; This function calls:
  3776 ;;		Nothing
  3777 ;; This function is called by:
  3778 ;;		_SYSTEM_Initialize
  3779 ;; This function uses a non-reentrant model
  3780 ;;
  3781                           
  3782                           
  3783                           ;psect for function _PIN_MANAGER_Initialize
  3784  017E                     _PIN_MANAGER_Initialize:	
  3785                           
  3786                           ;pin_manager.c: 62: LATA = 0x00;
  3787                           
  3788                           ;incstack = 0
  3789                           ; Regs used in _PIN_MANAGER_Initialize: [wreg+status,2]
  3790  017E  0140               	movlb	0	; select bank0
  3791  017F  0198               	clrf	24	;volatile
  3792                           
  3793                           ;pin_manager.c: 63: LATC = 0x00;
  3794  0180  019A               	clrf	26	;volatile
  3795                           
  3796                           ;pin_manager.c: 68: TRISA = 0x0B;
  3797  0181  300B               	movlw	11
  3798  0182  0092               	movwf	18	;volatile
  3799                           
  3800                           ;pin_manager.c: 69: TRISC = 0x00;
  3801  0183  0194               	clrf	20	;volatile
  3802                           
  3803                           ;pin_manager.c: 74: ANSELC = 0x3F;
  3804  0184  303F               	movlw	63
  3805  0185  017E               	movlb	62	; select bank62
  3806  0186  00CE               	movwf	78	;volatile
  3807                           
  3808                           ;pin_manager.c: 75: ANSELA = 0x34;
  3809  0187  3034               	movlw	52
  3810  0188  00B8               	movwf	56	;volatile
  3811                           
  3812                           ;pin_manager.c: 80: WPUA = 0x00;
  3813  0189  01B9               	clrf	57	;volatile
  3814                           
  3815                           ;pin_manager.c: 81: WPUC = 0x00;
  3816  018A  01CF               	clrf	79	;volatile
  3817                           
  3818                           ;pin_manager.c: 86: ODCONA = 0x00;
  3819  018B  01BA               	clrf	58	;volatile
  3820                           
  3821                           ;pin_manager.c: 87: ODCONC = 0x00;
  3822  018C  01D0               	clrf	80	;volatile
  3823                           
  3824                           ;pin_manager.c: 92: SLRCONA = 0x3F;
  3825  018D  303F               	movlw	63
  3826  018E  00BB               	movwf	59	;volatile
  3827                           
  3828                           ;pin_manager.c: 93: SLRCONC = 0x3F;
  3829  018F  303F               	movlw	63
  3830  0190  00D1               	movwf	81	;volatile
  3831                           
  3832                           ;pin_manager.c: 102: SSP1CLKPPS = 0x00;
  3833  0191  017D               	movlb	61	; select bank61
  3834  0192  01C5               	clrf	69	;volatile
  3835                           
  3836                           ;pin_manager.c: 103: RA1PPS = 0x16;
  3837  0193  3016               	movlw	22
  3838  0194  017E               	movlb	62	; select bank62
  3839  0195  0091               	movwf	17	;volatile
  3840                           
  3841                           ;pin_manager.c: 104: RA0PPS = 0x15;
  3842  0196  3015               	movlw	21
  3843  0197  0090               	movwf	16	;volatile
  3844                           
  3845                           ;pin_manager.c: 105: SSP1DATPPS = 0x01;
  3846  0198  3001               	movlw	1
  3847  0199  017D               	movlb	61	; select bank61
  3848  019A  00C6               	movwf	70	;volatile
  3849  019B  0008               	return
  3850  019C                     __end_of_PIN_MANAGER_Initialize:	
  3851                           
  3852                           	psect	text11
  3853  0223                     __ptext11:	
  3854 ;; *************** function _OSCILLATOR_Initialize *****************
  3855 ;; Defined at:
  3856 ;;		line 61 in file "mcc_generated_files/mcc.c"
  3857 ;; Parameters:    Size  Location     Type
  3858 ;;		None
  3859 ;; Auto vars:     Size  Location     Type
  3860 ;;		None
  3861 ;; Return value:  Size  Location     Type
  3862 ;;                  1    wreg      void 
  3863 ;; Registers used:
  3864 ;;		wreg, status,2
  3865 ;; Tracked objects:
  3866 ;;		On entry : 0/0
  3867 ;;		On exit  : 0/0
  3868 ;;		Unchanged: 0/0
  3869 ;; Data sizes:     COMMON   BANK0   BANK1   BANK2   BANK3   BANK4   BANK5   BANK6
  3870 ;;      Params:         0       0       0       0       0       0       0       0
  3871 ;;      Locals:         0       0       0       0       0       0       0       0
  3872 ;;      Temps:          0       0       0       0       0       0       0       0
  3873 ;;      Totals:         0       0       0       0       0       0       0       0
  3874 ;;Total ram usage:        0 bytes
  3875 ;; Hardware stack levels used:    1
  3876 ;; Hardware stack levels required when called:    3
  3877 ;; This function calls:
  3878 ;;		Nothing
  3879 ;; This function is called by:
  3880 ;;		_SYSTEM_Initialize
  3881 ;; This function uses a non-reentrant model
  3882 ;;
  3883                           
  3884                           
  3885                           ;psect for function _OSCILLATOR_Initialize
  3886  0223                     _OSCILLATOR_Initialize:	
  3887                           
  3888                           ;mcc.c: 64: OSCCON1 = 0x62;
  3889                           
  3890                           ;incstack = 0
  3891                           ; Regs used in _OSCILLATOR_Initialize: [wreg+status,2]
  3892  0223  3062               	movlw	98
  3893  0224  0151               	movlb	17	; select bank17
  3894  0225  008D               	movwf	13	;volatile
  3895                           
  3896                           ;mcc.c: 66: OSCCON3 = 0x00;
  3897  0226  018F               	clrf	15	;volatile
  3898                           
  3899                           ;mcc.c: 68: OSCEN = 0x00;
  3900  0227  0191               	clrf	17	;volatile
  3901                           
  3902                           ;mcc.c: 70: OSCFRQ = 0x06;
  3903  0228  3006               	movlw	6
  3904  0229  0093               	movwf	19	;volatile
  3905                           
  3906                           ;mcc.c: 72: OSCSTAT = 0x00;
  3907  022A  0190               	clrf	16	;volatile
  3908                           
  3909                           ;mcc.c: 74: OSCTUNE = 0x00;
  3910  022B  0192               	clrf	18	;volatile
  3911  022C  0008               	return
  3912  022D                     __end_of_OSCILLATOR_Initialize:	
  3913                           
  3914                           	psect	text12
  3915  01F8                     __ptext12:	
  3916 ;; *************** function _I2C1_Initialize *****************
  3917 ;; Defined at:
  3918 ;;		line 82 in file "mcc_generated_files/i2c1.c"
  3919 ;; Parameters:    Size  Location     Type
  3920 ;;		None
  3921 ;; Auto vars:     Size  Location     Type
  3922 ;;		None
  3923 ;; Return value:  Size  Location     Type
  3924 ;;                  1    wreg      void 
  3925 ;; Registers used:
  3926 ;;		wreg, status,2
  3927 ;; Tracked objects:
  3928 ;;		On entry : 0/0
  3929 ;;		On exit  : 0/0
  3930 ;;		Unchanged: 0/0
  3931 ;; Data sizes:     COMMON   BANK0   BANK1   BANK2   BANK3   BANK4   BANK5   BANK6
  3932 ;;      Params:         0       0       0       0       0       0       0       0
  3933 ;;      Locals:         0       0       0       0       0       0       0       0
  3934 ;;      Temps:          0       0       0       0       0       0       0       0
  3935 ;;      Totals:         0       0       0       0       0       0       0       0
  3936 ;;Total ram usage:        0 bytes
  3937 ;; Hardware stack levels used:    1
  3938 ;; Hardware stack levels required when called:    3
  3939 ;; This function calls:
  3940 ;;		Nothing
  3941 ;; This function is called by:
  3942 ;;		_SYSTEM_Initialize
  3943 ;; This function uses a non-reentrant model
  3944 ;;
  3945                           
  3946                           
  3947                           ;psect for function _I2C1_Initialize
  3948  01F8                     _I2C1_Initialize:	
  3949                           
  3950                           ;i2c1.c: 86: SSP1STAT = 0x40;
  3951                           
  3952                           ;incstack = 0
  3953                           ; Regs used in _I2C1_Initialize: [wreg+status,2]
  3954  01F8  3040               	movlw	64
  3955  01F9  0143               	movlb	3	; select bank3
  3956  01FA  008F               	movwf	15	;volatile
  3957                           
  3958                           ;i2c1.c: 88: SSP1CON1 = 0x26;
  3959  01FB  3026               	movlw	38
  3960  01FC  0090               	movwf	16	;volatile
  3961                           
  3962                           ;i2c1.c: 90: SSP1CON2 = 0x00;
  3963  01FD  0191               	clrf	17	;volatile
  3964                           
  3965                           ;i2c1.c: 92: SSP1CON3 = 0x00;
  3966  01FE  0192               	clrf	18	;volatile
  3967                           
  3968                           ;i2c1.c: 94: SSP1MSK = (0x7F << 1);
  3969  01FF  30FE               	movlw	254
  3970  0200  008E               	movwf	14	;volatile
  3971                           
  3972                           ;i2c1.c: 96: SSP1ADD = (0x55 << 1);
  3973  0201  30AA               	movlw	170
  3974  0202  008D               	movwf	13	;volatile
  3975                           
  3976                           ;i2c1.c: 99: PIR3bits.SSP1IF = 0;
  3977  0203  014E               	movlb	14	; select bank14
  3978  0204  100F               	bcf	15,0	;volatile
  3979                           
  3980                           ;i2c1.c: 101: PIE3bits.SSP1IE = 1;
  3981  0205  1419               	bsf	25,0	;volatile
  3982  0206  0008               	return
  3983  0207                     __end_of_I2C1_Initialize:	
  3984                           
  3985                           	psect	text13
  3986  0235                     __ptext13:	
  3987 ;; *************** function _ADC_Initialize *****************
  3988 ;; Defined at:
  3989 ;;		line 65 in file "mcc_generated_files/adc.c"
  3990 ;; Parameters:    Size  Location     Type
  3991 ;;		None
  3992 ;; Auto vars:     Size  Location     Type
  3993 ;;		None
  3994 ;; Return value:  Size  Location     Type
  3995 ;;                  1    wreg      void 
  3996 ;; Registers used:
  3997 ;;		wreg, status,2
  3998 ;; Tracked objects:
  3999 ;;		On entry : 0/0
  4000 ;;		On exit  : 0/0
  4001 ;;		Unchanged: 0/0
  4002 ;; Data sizes:     COMMON   BANK0   BANK1   BANK2   BANK3   BANK4   BANK5   BANK6
  4003 ;;      Params:         0       0       0       0       0       0       0       0
  4004 ;;      Locals:         0       0       0       0       0       0       0       0
  4005 ;;      Temps:          0       0       0       0       0       0       0       0
  4006 ;;      Totals:         0       0       0       0       0       0       0       0
  4007 ;;Total ram usage:        0 bytes
  4008 ;; Hardware stack levels used:    1
  4009 ;; Hardware stack levels required when called:    3
  4010 ;; This function calls:
  4011 ;;		Nothing
  4012 ;; This function is called by:
  4013 ;;		_SYSTEM_Initialize
  4014 ;; This function uses a non-reentrant model
  4015 ;;
  4016                           
  4017                           
  4018                           ;psect for function _ADC_Initialize
  4019  0235                     _ADC_Initialize:	
  4020                           
  4021                           ;adc.c: 70: ADCON0 = 0x01;
  4022                           
  4023                           ;incstack = 0
  4024                           ; Regs used in _ADC_Initialize: [wreg+status,2]
  4025  0235  3001               	movlw	1
  4026  0236  0141               	movlb	1	; select bank1
  4027  0237  009D               	movwf	29	;volatile
  4028                           
  4029                           ;adc.c: 73: ADCON1 = 0xD0;
  4030  0238  30D0               	movlw	208
  4031  0239  009E               	movwf	30	;volatile
  4032                           
  4033                           ;adc.c: 76: ADRESL = 0x00;
  4034  023A  019B               	clrf	27	;volatile
  4035                           
  4036                           ;adc.c: 79: ADRESH = 0x00;
  4037  023B  019C               	clrf	28	;volatile
  4038  023C  0008               	return
  4039  023D                     __end_of_ADC_Initialize:	
  4040                           
  4041                           	psect	text14
  4042  015F                     __ptext14:	
  4043 ;; *************** function _ADC_GetConversion *****************
  4044 ;; Defined at:
  4045 ;;		line 110 in file "mcc_generated_files/adc.c"
  4046 ;; Parameters:    Size  Location     Type
  4047 ;;  channel         1    wreg     enum E7713
  4048 ;; Auto vars:     Size  Location     Type
  4049 ;;  channel         1    3[BANK0 ] enum E7713
  4050 ;; Return value:  Size  Location     Type
  4051 ;;                  2    0[BANK0 ] unsigned int 
  4052 ;; Registers used:
  4053 ;;		wreg, status,2, status,0
  4054 ;; Tracked objects:
  4055 ;;		On entry : 0/0
  4056 ;;		On exit  : 0/0
  4057 ;;		Unchanged: 0/0
  4058 ;; Data sizes:     COMMON   BANK0   BANK1   BANK2   BANK3   BANK4   BANK5   BANK6
  4059 ;;      Params:         0       2       0       0       0       0       0       0
  4060 ;;      Locals:         0       1       0       0       0       0       0       0
  4061 ;;      Temps:          0       1       0       0       0       0       0       0
  4062 ;;      Totals:         0       4       0       0       0       0       0       0
  4063 ;;Total ram usage:        4 bytes
  4064 ;; Hardware stack levels used:    1
  4065 ;; Hardware stack levels required when called:    3
  4066 ;; This function calls:
  4067 ;;		Nothing
  4068 ;; This function is called by:
  4069 ;;		_main
  4070 ;; This function uses a non-reentrant model
  4071 ;;
  4072                           
  4073                           
  4074                           ;psect for function _ADC_GetConversion
  4075  015F                     _ADC_GetConversion:	
  4076                           
  4077                           ;incstack = 0
  4078                           ; Regs used in _ADC_GetConversion: [wreg+status,2+status,0]
  4079                           ;ADC_GetConversion@channel stored from wreg
  4080  015F  0140               	movlb	0	; select bank0
  4081  0160  00A3               	movwf	ADC_GetConversion@channel
  4082                           
  4083                           ;adc.c: 113: ADCON0bits.CHS = channel;
  4084  0161  0823               	movf	ADC_GetConversion@channel,w
  4085  0162  00A2               	movwf	??_ADC_GetConversion
  4086  0163  0DA2               	rlf	??_ADC_GetConversion,f
  4087  0164  0DA2               	rlf	??_ADC_GetConversion,f
  4088  0165  0141               	movlb	1	; select bank1
  4089  0166  081D               	movf	29,w	;volatile
  4090  0167  0140               	movlb	0	; select bank0
  4091  0168  0622               	xorwf	??_ADC_GetConversion,w
  4092  0169  3903               	andlw	-253
  4093  016A  0622               	xorwf	??_ADC_GetConversion,w
  4094  016B  0141               	movlb	1	; select bank1
  4095  016C  009D               	movwf	29	;volatile
  4096                           
  4097                           ;adc.c: 116: ADCON0bits.ADON = 1;
  4098  016D  141D               	bsf	29,0	;volatile
  4099                           
  4100                           ;adc.c: 119: _delay((unsigned long)((5)*(8000000/4000000.0)));
  4101  016E  3003               	movlw	3
  4102  016F                     u1127:	
  4103  016F  0B89               	decfsz	9,f
  4104  0170  296F               	goto	u1127
  4105  0171  0000               	nop
  4106                           
  4107                           ;adc.c: 122: ADCON0bits.GOnDONE = 1;
  4108  0172  0141               	movlb	1	; select bank1
  4109  0173  149D               	bsf	29,1	;volatile
  4110  0174                     l371:	
  4111                           ;adc.c: 126: {
  4112                           
  4113                           ;adc.c: 125: while (ADCON0bits.GOnDONE)
  4114                           
  4115  0174  189D               	btfsc	29,1	;volatile
  4116  0175  2974               	goto	l371
  4117                           
  4118                           ;adc.c: 127: }
  4119                           ;adc.c: 130: return ((adc_result_t)((ADRESH << 8) + ADRESL));
  4120  0176  081C               	movf	28,w	;volatile
  4121  0177  0140               	movlb	0	; select bank0
  4122  0178  00A1               	movwf	?_ADC_GetConversion+1
  4123  0179  0141               	movlb	1	; select bank1
  4124  017A  081B               	movf	27,w	;volatile
  4125  017B  0140               	movlb	0	; select bank0
  4126  017C  00A0               	movwf	?_ADC_GetConversion
  4127  017D  0008               	return
  4128  017E                     __end_of_ADC_GetConversion:	
  4129                           
  4130                           	psect	intentry
  4131  0004                     __pintentry:	
  4132 ;; *************** function _INTERRUPT_InterruptManager *****************
  4133 ;; Defined at:
  4134 ;;		line 52 in file "mcc_generated_files/interrupt_manager.c"
  4135 ;; Parameters:    Size  Location     Type
  4136 ;;		None
  4137 ;; Auto vars:     Size  Location     Type
  4138 ;;		None
  4139 ;; Return value:  Size  Location     Type
  4140 ;;                  1    wreg      void 
  4141 ;; Registers used:
  4142 ;;		wreg, fsr0l, fsr0h, fsr1l, fsr1h, status,2, status,0, pclath, cstack
  4143 ;; Tracked objects:
  4144 ;;		On entry : 0/0
  4145 ;;		On exit  : 0/0
  4146 ;;		Unchanged: 0/0
  4147 ;; Data sizes:     COMMON   BANK0   BANK1   BANK2   BANK3   BANK4   BANK5   BANK6
  4148 ;;      Params:         0       0       0       0       0       0       0       0
  4149 ;;      Locals:         0       0       0       0       0       0       0       0
  4150 ;;      Temps:          1       0       0       0       0       0       0       0
  4151 ;;      Totals:         1       0       0       0       0       0       0       0
  4152 ;;Total ram usage:        1 bytes
  4153 ;; Hardware stack levels used:    1
  4154 ;; Hardware stack levels required when called:    2
  4155 ;; This function calls:
  4156 ;;		_I2C1_ISR
  4157 ;;		_TMR0_ISR
  4158 ;;		_TMR1_ISR
  4159 ;; This function is called by:
  4160 ;;		Interrupt level 1
  4161 ;; This function uses a non-reentrant model
  4162 ;;
  4163                           
  4164  0004                     _INTERRUPT_InterruptManager:	
  4165                           
  4166                           ;incstack = 0
  4167  0004  147E               	bsf	126,0	;set compiler interrupt flag (level 1)
  4168                           
  4169                           ; Regs used in _INTERRUPT_InterruptManager: [wreg-fsr1h+status,2+status,0+pclath+cstack]
  4170  0005  3180               	pagesel	$
  4171  0006  0140               	movlb	0	; select bank0
  4172  0007  087F               	movf	127,w
  4173  0008  00F4               	movwf	??_INTERRUPT_InterruptManager
  4174                           
  4175                           ;interrupt_manager.c: 55: if(PIE0bits.TMR0IE == 1 && PIR0bits.TMR0IF == 1)
  4176  0009  014E               	movlb	14	; select bank14
  4177  000A  1A96               	btfsc	22,5	;volatile
  4178  000B  1E8C               	btfss	12,5	;volatile
  4179  000C  2817               	goto	i1l1363
  4180                           
  4181                           ;interrupt_manager.c: 56: {
  4182                           ;interrupt_manager.c: 57: TMR0_ISR();
  4183  000D  3182  2216  3180   	fcall	_TMR0_ISR
  4184                           
  4185                           ;interrupt_manager.c: 58: if(PIE4bits.TMR1IE == 1 && PIR4bits.TMR1IF == 1)
  4186  0010  014E               	movlb	14	; select bank14
  4187  0011  181A               	btfsc	26,0	;volatile
  4188  0012  1C10               	btfss	16,0	;volatile
  4189  0013  2817               	goto	i1l1363
  4190                           
  4191                           ;interrupt_manager.c: 59: {
  4192                           ;interrupt_manager.c: 60: TMR1_ISR();
  4193  0014  3181  21B7  3180   	fcall	_TMR1_ISR
  4194  0017                     i1l1363:	
  4195                           
  4196                           ;interrupt_manager.c: 61: }
  4197                           ;interrupt_manager.c: 62: }
  4198                           ;interrupt_manager.c: 63: if(INTCONbits.PEIE == 1)
  4199  0017  1F0B               	btfss	11,6	;volatile
  4200  0018  2826               	goto	i1l82
  4201                           
  4202                           ;interrupt_manager.c: 64: {
  4203                           ;interrupt_manager.c: 65: if(PIE3bits.SSP1IE == 1 && PIR3bits.SSP1IF == 1)
  4204  0019  014E               	movlb	14	; select bank14
  4205  001A  1819               	btfsc	25,0	;volatile
  4206  001B  1C0F               	btfss	15,0	;volatile
  4207  001C  2820               	goto	i1l1371
  4208                           
  4209                           ;interrupt_manager.c: 66: {
  4210                           ;interrupt_manager.c: 67: I2C1_ISR();
  4211  001D  3181  213D  3180   	fcall	_I2C1_ISR
  4212  0020                     i1l1371:	
  4213                           
  4214                           ;interrupt_manager.c: 68: }
  4215                           ;interrupt_manager.c: 69: if(PIE4bits.TMR1IE == 1 && PIR4bits.TMR1IF == 1)
  4216  0020  014E               	movlb	14	; select bank14
  4217  0021  181A               	btfsc	26,0	;volatile
  4218  0022  1C10               	btfss	16,0	;volatile
  4219  0023  2826               	goto	i1l82
  4220                           
  4221                           ;interrupt_manager.c: 70: {
  4222                           ;interrupt_manager.c: 71: TMR1_ISR();
  4223  0024  3181  21B7         	fcall	_TMR1_ISR
  4224  0026                     i1l82:	
  4225                           ;interrupt_manager.c: 78: else
  4226                           ;interrupt_manager.c: 79: {
  4227                           
  4228                           ;interrupt_manager.c: 76: }
  4229                           ;interrupt_manager.c: 77: }
  4230                           
  4231                           ;interrupt_manager.c: 73: else
  4232                           ;interrupt_manager.c: 74: {
  4233                           
  4234                           ;interrupt_manager.c: 72: }
  4235                           
  4236  0026  0874               	movf	??_INTERRUPT_InterruptManager,w
  4237  0027  0140               	movlb	0	; select bank0
  4238  0028  00FF               	movwf	127
  4239  0029  107E               	bcf	126,0	;clear compiler interrupt flag (level 1)
  4240  002A  0009               	retfie
  4241  002B                     __end_of_INTERRUPT_InterruptManager:	
  4242                           
  4243                           	psect	text16
  4244  01B7                     __ptext16:	
  4245 ;; *************** function _TMR1_ISR *****************
  4246 ;; Defined at:
  4247 ;;		line 164 in file "mcc_generated_files/tmr1.c"
  4248 ;; Parameters:    Size  Location     Type
  4249 ;;		None
  4250 ;; Auto vars:     Size  Location     Type
  4251 ;;		None
  4252 ;; Return value:  Size  Location     Type
  4253 ;;                  1    wreg      void 
  4254 ;; Registers used:
  4255 ;;		wreg, status,2, status,0, pclath, cstack
  4256 ;; Tracked objects:
  4257 ;;		On entry : 0/0
  4258 ;;		On exit  : 0/0
  4259 ;;		Unchanged: 0/0
  4260 ;; Data sizes:     COMMON   BANK0   BANK1   BANK2   BANK3   BANK4   BANK5   BANK6
  4261 ;;      Params:         0       0       0       0       0       0       0       0
  4262 ;;      Locals:         0       0       0       0       0       0       0       0
  4263 ;;      Temps:          1       0       0       0       0       0       0       0
  4264 ;;      Totals:         1       0       0       0       0       0       0       0
  4265 ;;Total ram usage:        1 bytes
  4266 ;; Hardware stack levels used:    1
  4267 ;; Hardware stack levels required when called:    1
  4268 ;; This function calls:
  4269 ;;		Absolute function
  4270 ;;		_TMR1_DefaultInterruptHandler
  4271 ;;		_TMR1_WriteTimer
  4272 ;; This function is called by:
  4273 ;;		_INTERRUPT_InterruptManager
  4274 ;; This function uses a non-reentrant model
  4275 ;;
  4276                           
  4277                           
  4278                           ;psect for function _TMR1_ISR
  4279  01B7                     _TMR1_ISR:	
  4280                           
  4281                           ;tmr1.c: 168: PIR4bits.TMR1IF = 0;
  4282                           
  4283                           ;incstack = 0
  4284                           ; Regs used in _TMR1_ISR: [wreg+status,2+status,0+pclath+cstack]
  4285  01B7  014E               	movlb	14	; select bank14
  4286  01B8  1010               	bcf	16,0	;volatile
  4287                           
  4288                           ;tmr1.c: 169: TMR1_WriteTimer(timer1ReloadVal);
  4289  01B9  0876               	movf	_timer1ReloadVal+1,w	;volatile
  4290  01BA  00F1               	movwf	TMR1_WriteTimer@timerVal+1
  4291  01BB  0875               	movf	_timer1ReloadVal,w	;volatile
  4292  01BC  00F0               	movwf	TMR1_WriteTimer@timerVal
  4293  01BD  3182  2207  3181   	fcall	_TMR1_WriteTimer
  4294                           
  4295                           ;tmr1.c: 170: flashtaillight++;
  4296  01C0  3001               	movlw	1
  4297  01C1  00F2               	movwf	??_TMR1_ISR
  4298  01C2  0872               	movf	??_TMR1_ISR,w
  4299  01C3  0140               	movlb	0	; select bank0
  4300  01C4  07B6               	addwf	_flashtaillight,f	;volatile
  4301                           
  4302                           ;tmr1.c: 171: if(TMR1_InterruptHandler)
  4303  01C5  0832               	movf	_TMR1_InterruptHandler,w
  4304  01C6  0433               	iorwf	_TMR1_InterruptHandler+1,w
  4305  01C7  1903               	btfsc	3,2
  4306  01C8  0008               	return
  4307                           
  4308                           ;tmr1.c: 172: {
  4309                           ;tmr1.c: 173: TMR1_InterruptHandler();
  4310  01C9  0833               	movf	_TMR1_InterruptHandler+1,w
  4311  01CA  008A               	movwf	10
  4312  01CB  0832               	movf	_TMR1_InterruptHandler,w
  4313  01CC  000A               	callw
  4314  01CD  3181               	pagesel	$
  4315  01CE  0008               	return
  4316  01CF                     __end_of_TMR1_ISR:	
  4317                           
  4318                           	psect	text17
  4319  0207                     __ptext17:	
  4320 ;; *************** function _TMR1_WriteTimer *****************
  4321 ;; Defined at:
  4322 ;;		line 127 in file "mcc_generated_files/tmr1.c"
  4323 ;; Parameters:    Size  Location     Type
  4324 ;;  timerVal        2    0[COMMON] unsigned int 
  4325 ;; Auto vars:     Size  Location     Type
  4326 ;;		None
  4327 ;; Return value:  Size  Location     Type
  4328 ;;                  1    wreg      void 
  4329 ;; Registers used:
  4330 ;;		wreg, status,2
  4331 ;; Tracked objects:
  4332 ;;		On entry : 0/0
  4333 ;;		On exit  : 0/0
  4334 ;;		Unchanged: 0/0
  4335 ;; Data sizes:     COMMON   BANK0   BANK1   BANK2   BANK3   BANK4   BANK5   BANK6
  4336 ;;      Params:         2       0       0       0       0       0       0       0
  4337 ;;      Locals:         0       0       0       0       0       0       0       0
  4338 ;;      Temps:          0       0       0       0       0       0       0       0
  4339 ;;      Totals:         2       0       0       0       0       0       0       0
  4340 ;;Total ram usage:        2 bytes
  4341 ;; Hardware stack levels used:    1
  4342 ;; This function calls:
  4343 ;;		Nothing
  4344 ;; This function is called by:
  4345 ;;		_TMR1_ISR
  4346 ;;		_TMR1_Reload
  4347 ;; This function uses a non-reentrant model
  4348 ;;
  4349                           
  4350                           
  4351                           ;psect for function _TMR1_WriteTimer
  4352  0207                     _TMR1_WriteTimer:	
  4353                           
  4354                           ;tmr1.c: 129: if (T1CONbits.nT1SYNC == 1)
  4355                           
  4356                           ;incstack = 0
  4357                           ; Regs used in _TMR1_WriteTimer: [wreg+status,2]
  4358  0207  0144               	movlb	4	; select bank4
  4359  0208  1D0E               	btfss	14,2	;volatile
  4360  0209  2A11               	goto	i1l1251
  4361                           
  4362                           ;tmr1.c: 130: {
  4363                           ;tmr1.c: 132: T1CONbits.TMR1ON = 0;
  4364  020A  100E               	bcf	14,0	;volatile
  4365                           
  4366                           ;tmr1.c: 135: TMR1H = (timerVal >> 8);
  4367  020B  0871               	movf	TMR1_WriteTimer@timerVal+1,w
  4368  020C  008D               	movwf	13	;volatile
  4369                           
  4370                           ;tmr1.c: 136: TMR1L = timerVal;
  4371  020D  0870               	movf	TMR1_WriteTimer@timerVal,w
  4372  020E  008C               	movwf	12	;volatile
  4373                           
  4374                           ;tmr1.c: 139: T1CONbits.TMR1ON =1;
  4375  020F  140E               	bsf	14,0	;volatile
  4376                           
  4377                           ;tmr1.c: 140: }
  4378  0210  0008               	return
  4379  0211                     i1l1251:	
  4380                           
  4381                           ;tmr1.c: 141: else
  4382                           ;tmr1.c: 142: {
  4383                           ;tmr1.c: 144: TMR1H = (timerVal >> 8);
  4384  0211  0871               	movf	TMR1_WriteTimer@timerVal+1,w
  4385  0212  008D               	movwf	13	;volatile
  4386                           
  4387                           ;tmr1.c: 145: TMR1L = timerVal;
  4388  0213  0870               	movf	TMR1_WriteTimer@timerVal,w
  4389  0214  008C               	movwf	12	;volatile
  4390  0215  0008               	return
  4391  0216                     __end_of_TMR1_WriteTimer:	
  4392                           
  4393                           	psect	text18
  4394  025D                     __ptext18:	
  4395 ;; *************** function _TMR1_DefaultInterruptHandler *****************
  4396 ;; Defined at:
  4397 ;;		line 182 in file "mcc_generated_files/tmr1.c"
  4398 ;; Parameters:    Size  Location     Type
  4399 ;;		None
  4400 ;; Auto vars:     Size  Location     Type
  4401 ;;		None
  4402 ;; Return value:  Size  Location     Type
  4403 ;;                  1    wreg      void 
  4404 ;; Registers used:
  4405 ;;		None
  4406 ;; Tracked objects:
  4407 ;;		On entry : 0/0
  4408 ;;		On exit  : 0/0
  4409 ;;		Unchanged: 0/0
  4410 ;; Data sizes:     COMMON   BANK0   BANK1   BANK2   BANK3   BANK4   BANK5   BANK6
  4411 ;;      Params:         0       0       0       0       0       0       0       0
  4412 ;;      Locals:         0       0       0       0       0       0       0       0
  4413 ;;      Temps:          0       0       0       0       0       0       0       0
  4414 ;;      Totals:         0       0       0       0       0       0       0       0
  4415 ;;Total ram usage:        0 bytes
  4416 ;; Hardware stack levels used:    1
  4417 ;; This function calls:
  4418 ;;		Nothing
  4419 ;; This function is called by:
  4420 ;;		_TMR1_Initialize
  4421 ;;		_TMR1_ISR
  4422 ;; This function uses a non-reentrant model
  4423 ;;
  4424                           
  4425                           
  4426                           ;psect for function _TMR1_DefaultInterruptHandler
  4427  025D                     _TMR1_DefaultInterruptHandler:	
  4428                           
  4429                           ;incstack = 0
  4430                           ; Regs used in _TMR1_DefaultInterruptHandler: []
  4431  025D  0008               	return
  4432  025E                     __end_of_TMR1_DefaultInterruptHandler:	
  4433                           
  4434                           	psect	text19
  4435  0216                     __ptext19:	
  4436 ;; *************** function _TMR0_ISR *****************
  4437 ;; Defined at:
  4438 ;;		line 123 in file "mcc_generated_files/tmr0.c"
  4439 ;; Parameters:    Size  Location     Type
  4440 ;;		None
  4441 ;; Auto vars:     Size  Location     Type
  4442 ;;		None
  4443 ;; Return value:  Size  Location     Type
  4444 ;;                  1    wreg      void 
  4445 ;; Registers used:
  4446 ;;		wreg, status,2, status,0
  4447 ;; Tracked objects:
  4448 ;;		On entry : 0/0
  4449 ;;		On exit  : 0/0
  4450 ;;		Unchanged: 0/0
  4451 ;; Data sizes:     COMMON   BANK0   BANK1   BANK2   BANK3   BANK4   BANK5   BANK6
  4452 ;;      Params:         0       0       0       0       0       0       0       0
  4453 ;;      Locals:         0       0       0       0       0       0       0       0
  4454 ;;      Temps:          1       0       0       0       0       0       0       0
  4455 ;;      Totals:         1       0       0       0       0       0       0       0
  4456 ;;Total ram usage:        1 bytes
  4457 ;; Hardware stack levels used:    1
  4458 ;; This function calls:
  4459 ;;		Nothing
  4460 ;; This function is called by:
  4461 ;;		_INTERRUPT_InterruptManager
  4462 ;; This function uses a non-reentrant model
  4463 ;;
  4464                           
  4465                           
  4466                           ;psect for function _TMR0_ISR
  4467  0216                     _TMR0_ISR:	
  4468                           
  4469                           ;tmr0.c: 126: PIR0bits.TMR0IF = 0;
  4470                           
  4471                           ;incstack = 0
  4472                           ; Regs used in _TMR0_ISR: [wreg+status,2+status,0]
  4473  0216  014E               	movlb	14	; select bank14
  4474  0217  128C               	bcf	12,5	;volatile
  4475                           
  4476                           ;tmr0.c: 128: time++;
  4477  0218  3001               	movlw	1
  4478  0219  00F0               	movwf	??_TMR0_ISR
  4479  021A  0870               	movf	??_TMR0_ISR,w
  4480  021B  0140               	movlb	0	; select bank0
  4481  021C  07B7               	addwf	_time,f	;volatile
  4482                           
  4483                           ;tmr0.c: 130: if(time >= 3) time = 0;
  4484  021D  3003               	movlw	3
  4485  021E  0237               	subwf	_time,w	;volatile
  4486  021F  1C03               	skipc
  4487  0220  0008               	return
  4488  0221  01B7               	clrf	_time	;volatile
  4489  0222  0008               	return
  4490  0223                     __end_of_TMR0_ISR:	
  4491                           
  4492                           	psect	text20
  4493  013D                     __ptext20:	
  4494 ;; *************** function _I2C1_ISR *****************
  4495 ;; Defined at:
  4496 ;;		line 105 in file "mcc_generated_files/i2c1.c"
  4497 ;; Parameters:    Size  Location     Type
  4498 ;;		None
  4499 ;; Auto vars:     Size  Location     Type
  4500 ;;  i2c_data        1    3[COMMON] unsigned char 
  4501 ;; Return value:  Size  Location     Type
  4502 ;;                  1    wreg      void 
  4503 ;; Registers used:
  4504 ;;		wreg, fsr0l, fsr0h, fsr1l, fsr1h, status,2, status,0, pclath, cstack
  4505 ;; Tracked objects:
  4506 ;;		On entry : 0/0
  4507 ;;		On exit  : 0/0
  4508 ;;		Unchanged: 0/0
  4509 ;; Data sizes:     COMMON   BANK0   BANK1   BANK2   BANK3   BANK4   BANK5   BANK6
  4510 ;;      Params:         0       0       0       0       0       0       0       0
  4511 ;;      Locals:         1       0       0       0       0       0       0       0
  4512 ;;      Temps:          1       0       0       0       0       0       0       0
  4513 ;;      Totals:         2       0       0       0       0       0       0       0
  4514 ;;Total ram usage:        2 bytes
  4515 ;; Hardware stack levels used:    1
  4516 ;; Hardware stack levels required when called:    1
  4517 ;; This function calls:
  4518 ;;		_I2C1_StatusCallback
  4519 ;; This function is called by:
  4520 ;;		_INTERRUPT_InterruptManager
  4521 ;; This function uses a non-reentrant model
  4522 ;;
  4523                           
  4524                           
  4525                           ;psect for function _I2C1_ISR
  4526  013D                     _I2C1_ISR:	
  4527                           
  4528                           ;i2c1.c: 107: uint8_t i2c_data = 0x55;
  4529                           
  4530                           ;incstack = 0
  4531                           ; Regs used in _I2C1_ISR: [wreg-fsr1h+status,2+status,0+pclath+cstack]
  4532  013D  3055               	movlw	85
  4533  013E  00F2               	movwf	??_I2C1_ISR
  4534  013F  0872               	movf	??_I2C1_ISR,w
  4535  0140  00F3               	movwf	I2C1_ISR@i2c_data
  4536                           
  4537                           ;i2c1.c: 113: PIR3bits.SSP1IF = 0;
  4538  0141  014E               	movlb	14	; select bank14
  4539  0142  100F               	bcf	15,0	;volatile
  4540                           
  4541                           ;i2c1.c: 114: i2c_data = SSP1BUF;
  4542  0143  0143               	movlb	3	; select bank3
  4543  0144  080C               	movf	12,w	;volatile
  4544  0145  00F2               	movwf	??_I2C1_ISR
  4545  0146  0872               	movf	??_I2C1_ISR,w
  4546  0147  00F3               	movwf	I2C1_ISR@i2c_data
  4547                           
  4548                           ;i2c1.c: 115: if(1 == SSP1STATbits.R_nW)
  4549  0148  1D0F               	btfss	15,2	;volatile
  4550  0149  2951               	goto	i1l203
  4551                           
  4552                           ;i2c1.c: 116: {
  4553                           ;i2c1.c: 117: if((1 == SSP1STATbits.D_nA) && (1 == SSP1CON2bits.ACKSTAT))
  4554  014A  1A8F               	btfsc	15,5	;volatile
  4555  014B  1F11               	btfss	17,6	;volatile
  4556  014C  294F               	goto	i1l1287
  4557                           
  4558                           ;i2c1.c: 118: {
  4559                           ;i2c1.c: 120: I2C1_StatusCallback(I2C1_SLAVE_READ_COMPLETED);
  4560  014D  3003               	movlw	3
  4561  014E  295A               	goto	L2
  4562  014F                     i1l1287:	
  4563                           ;i2c1.c: 121: }
  4564                           
  4565                           
  4566                           ;i2c1.c: 122: else
  4567                           ;i2c1.c: 123: {
  4568                           ;i2c1.c: 125: I2C1_StatusCallback(I2C1_SLAVE_READ_REQUEST);
  4569  014F  3001               	movlw	1
  4570  0150  295A               	goto	L2
  4571  0151                     i1l203:	
  4572                           ;i2c1.c: 126: }
  4573                           ;i2c1.c: 127: }
  4574                           
  4575                           
  4576                           ;i2c1.c: 128: else if(0 == SSP1STATbits.D_nA)
  4577  0151  1A8F               	btfsc	15,5	;volatile
  4578  0152  2955               	goto	i1l1291
  4579                           
  4580                           ;i2c1.c: 129: {
  4581                           ;i2c1.c: 133: I2C1_StatusCallback(I2C1_SLAVE_WRITE_REQUEST);
  4582  0153  3000               	movlw	0
  4583  0154  295A               	goto	L2
  4584  0155                     i1l1291:	
  4585                           ;i2c1.c: 134: }
  4586                           
  4587                           
  4588                           ;i2c1.c: 135: else
  4589                           ;i2c1.c: 136: {
  4590                           ;i2c1.c: 137: I2C1_slaveWriteData = i2c_data;
  4591  0155  0873               	movf	I2C1_ISR@i2c_data,w
  4592  0156  00F2               	movwf	??_I2C1_ISR
  4593  0157  0872               	movf	??_I2C1_ISR,w
  4594  0158  00F9               	movwf	_I2C1_slaveWriteData	;volatile
  4595                           
  4596                           ;i2c1.c: 140: I2C1_StatusCallback(I2C1_SLAVE_WRITE_COMPLETED);
  4597  0159  3002               	movlw	2
  4598  015A                     L2:	
  4599  015A  3180  20C2         	fcall	_I2C1_StatusCallback
  4600                           
  4601                           ;i2c1.c: 141: }
  4602                           ;i2c1.c: 143: SSP1CON1bits.CKP = 1;
  4603  015C  0143               	movlb	3	; select bank3
  4604  015D  1610               	bsf	16,4	;volatile
  4605  015E  0008               	return
  4606  015F                     __end_of_I2C1_ISR:	
  4607                           
  4608                           	psect	text21
  4609  00C2                     __ptext21:	
  4610 ;; *************** function _I2C1_StatusCallback *****************
  4611 ;; Defined at:
  4612 ;;		line 169 in file "mcc_generated_files/i2c1.c"
  4613 ;; Parameters:    Size  Location     Type
  4614 ;;  i2c_bus_stat    1    wreg     enum E7710
  4615 ;; Auto vars:     Size  Location     Type
  4616 ;;  i2c_bus_stat    1    1[COMMON] enum E7710
  4617 ;; Return value:  Size  Location     Type
  4618 ;;                  1    wreg      void 
  4619 ;; Registers used:
  4620 ;;		wreg, fsr0l, fsr0h, fsr1l, fsr1h, status,2, status,0
  4621 ;; Tracked objects:
  4622 ;;		On entry : 0/0
  4623 ;;		On exit  : 0/0
  4624 ;;		Unchanged: 0/0
  4625 ;; Data sizes:     COMMON   BANK0   BANK1   BANK2   BANK3   BANK4   BANK5   BANK6
  4626 ;;      Params:         0       0       0       0       0       0       0       0
  4627 ;;      Locals:         1       0       0       0       0       0       0       0
  4628 ;;      Temps:          1       0       0       0       0       0       0       0
  4629 ;;      Totals:         2       0       0       0       0       0       0       0
  4630 ;;Total ram usage:        2 bytes
  4631 ;; Hardware stack levels used:    1
  4632 ;; This function calls:
  4633 ;;		Nothing
  4634 ;; This function is called by:
  4635 ;;		_I2C1_ISR
  4636 ;; This function uses a non-reentrant model
  4637 ;;
  4638                           
  4639                           
  4640                           ;psect for function _I2C1_StatusCallback
  4641  00C2                     _I2C1_StatusCallback:	
  4642                           
  4643                           ;incstack = 0
  4644                           ; Regs used in _I2C1_StatusCallback: [wreg-fsr1h+status,2+status,0]
  4645                           ;I2C1_StatusCallback@i2c_bus_state stored from wreg
  4646  00C2  00F1               	movwf	I2C1_StatusCallback@i2c_bus_state
  4647                           
  4648                           ;i2c1.c: 172: static uint8_t eepromAddress = 0;
  4649                           ;i2c1.c: 173: static uint8_t slaveWriteType = SLAVE_NORMAL_DATA;
  4650                           ;i2c1.c: 176: switch (i2c_bus_state)
  4651  00C3  28F9               	goto	i1l1239
  4652  00C4                     i1l217:	
  4653                           ;i2c1.c: 177: {
  4654                           ;i2c1.c: 178: case I2C1_SLAVE_WRITE_REQUEST:
  4655                           
  4656                           
  4657                           ;i2c1.c: 180: slaveWriteType = SLAVE_DATA_ADDRESS;
  4658  00C4  01F7               	clrf	I2C1_StatusCallback@slaveWriteType
  4659  00C5  0AF7               	incf	I2C1_StatusCallback@slaveWriteType,f
  4660                           
  4661                           ;i2c1.c: 181: break;
  4662  00C6  0008               	return
  4663  00C7                     i1l1215:	
  4664                           ;i2c1.c: 187: {
  4665                           ;i2c1.c: 188: case SLAVE_DATA_ADDRESS:
  4666                           
  4667                           ;i2c1.c: 186: switch(slaveWriteType)
  4668                           
  4669                           ;i2c1.c: 184: case I2C1_SLAVE_WRITE_COMPLETED:
  4670                           
  4671                           
  4672                           ;i2c1.c: 189: eepromAddress = I2C1_slaveWriteData;
  4673  00C7  0879               	movf	_I2C1_slaveWriteData,w	;volatile
  4674  00C8  00F0               	movwf	??_I2C1_StatusCallback
  4675  00C9  0870               	movf	??_I2C1_StatusCallback,w
  4676  00CA  00F8               	movwf	I2C1_StatusCallback@eepromAddress
  4677                           
  4678                           ;i2c1.c: 190: break;
  4679  00CB  28E6               	goto	i1l1229
  4680  00CC                     i1l1217:	
  4681                           ;i2c1.c: 194: default:
  4682                           
  4683                           ;i2c1.c: 193: case SLAVE_NORMAL_DATA:
  4684                           
  4685                           
  4686                           ;i2c1.c: 196: EEPROM_Buffer[eepromAddress++] = I2C1_slaveWriteData;
  4687  00CC  0879               	movf	_I2C1_slaveWriteData,w	;volatile
  4688  00CD  00F0               	movwf	??_I2C1_StatusCallback
  4689  00CE  0878               	movf	I2C1_StatusCallback@eepromAddress,w
  4690  00CF  3E2B               	addlw	(low (_EEPROM_Buffer| 0))& (0+255)
  4691  00D0  0086               	movwf	6
  4692  00D1  0187               	clrf	7
  4693  00D2  0870               	movf	??_I2C1_StatusCallback,w
  4694  00D3  0081               	movwf	1
  4695  00D4  3001               	movlw	1
  4696  00D5  00F0               	movwf	??_I2C1_StatusCallback
  4697  00D6  0870               	movf	??_I2C1_StatusCallback,w
  4698  00D7  07F8               	addwf	I2C1_StatusCallback@eepromAddress,f
  4699                           
  4700                           ;i2c1.c: 197: if(sizeof(EEPROM_Buffer) <= eepromAddress)
  4701  00D8  3007               	movlw	7
  4702  00D9  0278               	subwf	I2C1_StatusCallback@eepromAddress,w
  4703  00DA  1C03               	skipc
  4704  00DB  28E6               	goto	i1l1229
  4705                           
  4706                           ;i2c1.c: 198: {
  4707                           ;i2c1.c: 199: eepromAddress = 0;
  4708  00DC  01F8               	clrf	I2C1_StatusCallback@eepromAddress
  4709                           
  4710                           ;i2c1.c: 203: }
  4711                           
  4712                           ;i2c1.c: 200: }
  4713                           ;i2c1.c: 201: break;
  4714  00DD  28E6               	goto	i1l1229
  4715  00DE                     i1l1227:	
  4716  00DE  0877               	movf	I2C1_StatusCallback@slaveWriteType,w
  4717                           
  4718                           ; Switch size 1, requested type "space"
  4719                           ; Number of cases is 2, Range of values is 0 to 1
  4720                           ; switch strategies available:
  4721                           ; Name         Instructions Cycles
  4722                           ; simple_byte            7     4 (average)
  4723                           ; direct_byte           10     6 (fixed)
  4724                           ; jumptable            260     6 (fixed)
  4725                           ;	Chosen strategy is simple_byte
  4726  00DF  3A00               	xorlw	0	; case 0
  4727  00E0  1903               	skipnz
  4728  00E1  28CC               	goto	i1l1217
  4729  00E2  3A01               	xorlw	1	; case 1
  4730  00E3  1903               	skipnz
  4731  00E4  28C7               	goto	i1l1215
  4732  00E5  28CC               	goto	i1l1217
  4733  00E6                     i1l1229:	
  4734                           
  4735                           ;i2c1.c: 205: slaveWriteType = SLAVE_NORMAL_DATA;
  4736  00E6  01F7               	clrf	I2C1_StatusCallback@slaveWriteType
  4737                           
  4738                           ;i2c1.c: 206: break;
  4739  00E7  0008               	return
  4740  00E8                     i1l1231:	
  4741                           ;i2c1.c: 208: case I2C1_SLAVE_READ_REQUEST:
  4742                           
  4743                           
  4744                           ;i2c1.c: 209: SSP1BUF = EEPROM_Buffer[eepromAddress++];
  4745  00E8  0878               	movf	I2C1_StatusCallback@eepromAddress,w
  4746  00E9  3E2B               	addlw	(low (_EEPROM_Buffer| 0))& (0+255)
  4747  00EA  0086               	movwf	6
  4748  00EB  0187               	clrf	7
  4749  00EC  0801               	movf	1,w
  4750  00ED  0143               	movlb	3	; select bank3
  4751  00EE  008C               	movwf	12	;volatile
  4752  00EF  3001               	movlw	1
  4753  00F0  00F0               	movwf	??_I2C1_StatusCallback
  4754  00F1  0870               	movf	??_I2C1_StatusCallback,w
  4755  00F2  07F8               	addwf	I2C1_StatusCallback@eepromAddress,f
  4756                           
  4757                           ;i2c1.c: 210: if(sizeof(EEPROM_Buffer) <= eepromAddress)
  4758  00F3  3007               	movlw	7
  4759  00F4  0278               	subwf	I2C1_StatusCallback@eepromAddress,w
  4760  00F5  1C03               	skipc
  4761  00F6  0008               	return
  4762                           
  4763                           ;i2c1.c: 211: {
  4764                           ;i2c1.c: 212: eepromAddress = 0;
  4765  00F7  01F8               	clrf	I2C1_StatusCallback@eepromAddress
  4766                           
  4767                           ;i2c1.c: 219: }
  4768                           
  4769                           ;i2c1.c: 217: default:;
  4770                           
  4771                           ;i2c1.c: 216: case I2C1_SLAVE_READ_COMPLETED:
  4772                           
  4773                           ;i2c1.c: 213: }
  4774                           ;i2c1.c: 214: break;
  4775  00F8  0008               	return
  4776  00F9                     i1l1239:	
  4777  00F9  0871               	movf	I2C1_StatusCallback@i2c_bus_state,w
  4778                           
  4779                           ; Switch size 1, requested type "space"
  4780                           ; Number of cases is 4, Range of values is 0 to 3
  4781                           ; switch strategies available:
  4782                           ; Name         Instructions Cycles
  4783                           ; simple_byte           13     7 (average)
  4784                           ; direct_byte           14     6 (fixed)
  4785                           ; jumptable            260     6 (fixed)
  4786                           ;	Chosen strategy is simple_byte
  4787  00FA  3A00               	xorlw	0	; case 0
  4788  00FB  1903               	skipnz
  4789  00FC  28C4               	goto	i1l217
  4790  00FD  3A01               	xorlw	1	; case 1
  4791  00FE  1903               	skipnz
  4792  00FF  28E8               	goto	i1l1231
  4793  0100  3A03               	xorlw	3	; case 2
  4794  0101  1903               	skipnz
  4795  0102  28DE               	goto	i1l1227
  4796  0103  3A01               	xorlw	1	; case 3
  4797  0104  1903               	skipnz
  4798  0105  2907               	goto	i1l230
  4799  0106  2907               	goto	i1l230
  4800  0107                     i1l230:	
  4801  0107  0008               	return
  4802  0108                     __end_of_I2C1_StatusCallback:	
  4803  007E                     btemp	set	126	;btemp
  4804  007E                     int$flags	set	126
  4805  007E                     wtemp0	set	126


Data Sizes:
    Strings     0
    Constant    0
    Data        8
    BSS         4
    Persistent  6
    Stack       0

Auto Spaces:
    Space          Size  Autos    Used
    COMMON           14      5      10
    BANK0            80     11      24
    BANK1            80      0       0
    BANK2            80      0       0
    BANK3            80      0       0
    BANK4            80      0       0
    BANK5            80      0       0
    BANK6            16      0       0

Pointer List with Targets:

    TMR1_SetInterruptHandler@InterruptHandler	PTR FTN()void  size(2) Largest target is 1
		 -> TMR1_DefaultInterruptHandler(), 

    TMR1_InterruptHandler	PTR FTN()void  size(2) Largest target is 1
		 -> Absolute function(), TMR1_DefaultInterruptHandler(), 

    TMR0_SetInterruptHandler@InterruptHandler	PTR FTN()void  size(2) Largest target is 1
		 -> TMR0_DefaultInterruptHandler(), 

    TMR0_InterruptHandler	PTR FTN()void  size(2) Largest target is 1
		 -> Absolute function(), TMR0_DefaultInterruptHandler(), 


Critical Paths under _main in COMMON

    None.

Critical Paths under _INTERRUPT_InterruptManager in COMMON

    _INTERRUPT_InterruptManager->_I2C1_ISR
    _TMR1_ISR->_TMR1_WriteTimer
    _I2C1_ISR->_I2C1_StatusCallback

Critical Paths under _main in BANK0

    _main->___lwdiv
    _TMR1_Initialize->_TMR1_SetInterruptHandler
    _TMR0_Initialize->_TMR0_SetInterruptHandler

Critical Paths under _INTERRUPT_InterruptManager in BANK0

    None.

Critical Paths under _main in BANK1

    None.

Critical Paths under _INTERRUPT_InterruptManager in BANK1

    None.

Critical Paths under _main in BANK2

    None.

Critical Paths under _INTERRUPT_InterruptManager in BANK2

    None.

Critical Paths under _main in BANK3

    None.

Critical Paths under _INTERRUPT_InterruptManager in BANK3

    None.

Critical Paths under _main in BANK4

    None.

Critical Paths under _INTERRUPT_InterruptManager in BANK4

    None.

Critical Paths under _main in BANK5

    None.

Critical Paths under _INTERRUPT_InterruptManager in BANK5

    None.

Critical Paths under _main in BANK6

    None.

Critical Paths under _INTERRUPT_InterruptManager in BANK6

    None.

Call Graph Tables:

 ---------------------------------------------------------------------------------
 (Depth) Function   	        Calls       Base Space   Used Autos Params    Refs
 ---------------------------------------------------------------------------------
 (0) _main                                                 3     3      0     679
                                              8 BANK0      3     3      0
                  _ADC_GetConversion
                  _SYSTEM_Initialize
                    _TMR0_StartTimer
                    _TMR1_StartTimer
                            ___lwdiv
 ---------------------------------------------------------------------------------
 (1) ___lwdiv                                              8     4      4     395
                                              0 BANK0      8     4      4
 ---------------------------------------------------------------------------------
 (1) _TMR1_StartTimer                                      0     0      0       0
 ---------------------------------------------------------------------------------
 (1) _TMR0_StartTimer                                      0     0      0       0
 ---------------------------------------------------------------------------------
 (1) _SYSTEM_Initialize                                    0     0      0     216
                     _ADC_Initialize
                    _I2C1_Initialize
              _OSCILLATOR_Initialize
             _PIN_MANAGER_Initialize
                     _PMD_Initialize
                    _TMR0_Initialize
                    _TMR1_Initialize
 ---------------------------------------------------------------------------------
 (2) _TMR1_Initialize                                      0     0      0     108
           _TMR1_SetInterruptHandler
 ---------------------------------------------------------------------------------
 (3) _TMR1_SetInterruptHandler                             2     0      2     108
                                              0 BANK0      2     0      2
 ---------------------------------------------------------------------------------
 (2) _TMR0_Initialize                                      0     0      0     108
           _TMR0_SetInterruptHandler
 ---------------------------------------------------------------------------------
 (3) _TMR0_SetInterruptHandler                             2     0      2     108
                                              0 BANK0      2     0      2
 ---------------------------------------------------------------------------------
 (2) _PMD_Initialize                                       0     0      0       0
 ---------------------------------------------------------------------------------
 (2) _PIN_MANAGER_Initialize                               0     0      0       0
 ---------------------------------------------------------------------------------
 (2) _OSCILLATOR_Initialize                                0     0      0       0
 ---------------------------------------------------------------------------------
 (2) _I2C1_Initialize                                      0     0      0       0
 ---------------------------------------------------------------------------------
 (2) _ADC_Initialize                                       0     0      0       0
 ---------------------------------------------------------------------------------
 (1) _ADC_GetConversion                                    4     2      2      31
                                              0 BANK0      4     2      2
 ---------------------------------------------------------------------------------
 Estimated maximum stack depth 3
 ---------------------------------------------------------------------------------
 (Depth) Function   	        Calls       Base Space   Used Autos Params    Refs
 ---------------------------------------------------------------------------------
 (4) _INTERRUPT_InterruptManager                           1     1      0     262
                                              4 COMMON     1     1      0
                           _I2C1_ISR
                           _TMR0_ISR
                           _TMR1_ISR
 ---------------------------------------------------------------------------------
 (5) _TMR1_ISR                                             1     1      0     216
                                              2 COMMON     1     1      0
                   Absolute function *
       _TMR1_DefaultInterruptHandler *
                    _TMR1_WriteTimer
 ---------------------------------------------------------------------------------
 (6) _TMR1_WriteTimer                                      2     0      2     216
                                              0 COMMON     2     0      2
 ---------------------------------------------------------------------------------
 (6) _TMR1_DefaultInterruptHandler                         0     0      0       0
 ---------------------------------------------------------------------------------
 (6) Absolute function(Fake)                               0     0      0       0
 ---------------------------------------------------------------------------------
 (5) _TMR0_ISR                                             1     1      0       0
                                              0 COMMON     1     1      0
 ---------------------------------------------------------------------------------
 (5) _I2C1_ISR                                             2     2      0      46
                                              2 COMMON     2     2      0
                _I2C1_StatusCallback
 ---------------------------------------------------------------------------------
 (6) _I2C1_StatusCallback                                  2     2      0      22
                                              0 COMMON     2     2      0
 ---------------------------------------------------------------------------------
 Estimated maximum stack depth 6
 ---------------------------------------------------------------------------------

 Call Graph Graphs:

 _main (ROOT)
   _ADC_GetConversion
   _SYSTEM_Initialize
     _ADC_Initialize
     _I2C1_Initialize
     _OSCILLATOR_Initialize
     _PIN_MANAGER_Initialize
     _PMD_Initialize
     _TMR0_Initialize
       _TMR0_SetInterruptHandler
     _TMR1_Initialize
       _TMR1_SetInterruptHandler
   _TMR0_StartTimer
   _TMR1_StartTimer
   ___lwdiv

 _INTERRUPT_InterruptManager (ROOT)
   _I2C1_ISR
     _I2C1_StatusCallback
   _TMR0_ISR
   _TMR1_ISR
     Absolute function(Fake) *
     _TMR1_DefaultInterruptHandler *
     _TMR1_WriteTimer *

 Address spaces:
Name               Size   Autos  Total    Cost      Usage
BIGRAM             1F0      0       0       0        0.0%
NULL                 0      0       0       0        0.0%
CODE                 0      0       0       0        0.0%
BITCOMMON            E      0       0       1        0.0%
BITSFR0              0      0       0       1        0.0%
SFR0                 0      0       0       1        0.0%
COMMON               E      5       A       2       71.4%
BITSFR1              0      0       0       2        0.0%
SFR1                 0      0       0       2        0.0%
BITSFR2              0      0       0       3        0.0%
SFR2                 0      0       0       3        0.0%
STACK                0      0       0       3        0.0%
BITSFR3              0      0       0       4        0.0%
SFR3                 0      0       0       4        0.0%
ABS                  0      0      22       4        0.0%
BITBANK0            50      0       0       5        0.0%
BITSFR4              0      0       0       5        0.0%
SFR4                 0      0       0       5        0.0%
BANK0               50      B      18       6       30.0%
BITSFR5              0      0       0       6        0.0%
SFR5                 0      0       0       6        0.0%
BITBANK1            50      0       0       7        0.0%
BITSFR6              0      0       0       7        0.0%
SFR6                 0      0       0       7        0.0%
BANK1               50      0       0       8        0.0%
BITSFR7              0      0       0       8        0.0%
SFR7                 0      0       0       8        0.0%
BITBANK2            50      0       0       9        0.0%
BITSFR8              0      0       0       9        0.0%
SFR8                 0      0       0       9        0.0%
BANK2               50      0       0      10        0.0%
BITSFR9              0      0       0      10        0.0%
SFR9                 0      0       0      10        0.0%
BITBANK3            50      0       0      11        0.0%
BITSFR10             0      0       0      11        0.0%
SFR10                0      0       0      11        0.0%
BANK3               50      0       0      12        0.0%
BITSFR11             0      0       0      12        0.0%
SFR11                0      0       0      12        0.0%
BITBANK4            50      0       0      13        0.0%
BITSFR12             0      0       0      13        0.0%
SFR12                0      0       0      13        0.0%
BANK4               50      0       0      14        0.0%
BITSFR13             0      0       0      14        0.0%
SFR13                0      0       0      14        0.0%
BITBANK5            50      0       0      15        0.0%
BITSFR14             0      0       0      15        0.0%
SFR14                0      0       0      15        0.0%
BANK5               50      0       0      16        0.0%
BITSFR15             0      0       0      16        0.0%
SFR15                0      0       0      16        0.0%
BITBANK6            10      0       0      17        0.0%
BITSFR16             0      0       0      17        0.0%
SFR16                0      0       0      17        0.0%
BANK6               10      0       0      18        0.0%
BITSFR17             0      0       0      18        0.0%
SFR17                0      0       0      18        0.0%
BITSFR18             0      0       0      19        0.0%
SFR18                0      0       0      19        0.0%
DATA                 0      0      22      19        0.0%
BITSFR19             0      0       0      20        0.0%
SFR19                0      0       0      20        0.0%
BITSFR20             0      0       0      21        0.0%
SFR20                0      0       0      21        0.0%
BITSFR21             0      0       0      22        0.0%
SFR21                0      0       0      22        0.0%
BITSFR22             0      0       0      23        0.0%
SFR22                0      0       0      23        0.0%
BITSFR23             0      0       0      24        0.0%
SFR23                0      0       0      24        0.0%
BITSFR24             0      0       0      25        0.0%
SFR24                0      0       0      25        0.0%
BITSFR25             0      0       0      26        0.0%
SFR25                0      0       0      26        0.0%
BITSFR26             0      0       0      27        0.0%
SFR26                0      0       0      27        0.0%
BITSFR27             0      0       0      28        0.0%
SFR27                0      0       0      28        0.0%
BITSFR28             0      0       0      29        0.0%
SFR28                0      0       0      29        0.0%
BITSFR29             0      0       0      30        0.0%
SFR29                0      0       0      30        0.0%
BITSFR30             0      0       0      31        0.0%
SFR30                0      0       0      31        0.0%
BITSFR31             0      0       0      32        0.0%
SFR31                0      0       0      32        0.0%
BITSFR32             0      0       0      33        0.0%
SFR32                0      0       0      33        0.0%
BITSFR33             0      0       0      34        0.0%
SFR33                0      0       0      34        0.0%
BITSFR34             0      0       0      35        0.0%
SFR34                0      0       0      35        0.0%
BITSFR35             0      0       0      36        0.0%
SFR35                0      0       0      36        0.0%
BITSFR36             0      0       0      37        0.0%
SFR36                0      0       0      37        0.0%
BITSFR37             0      0       0      38        0.0%
SFR37                0      0       0      38        0.0%
BITSFR38             0      0       0      39        0.0%
SFR38                0      0       0      39        0.0%
BITSFR39             0      0       0      40        0.0%
SFR39                0      0       0      40        0.0%
BITSFR40             0      0       0      41        0.0%
SFR40                0      0       0      41        0.0%
BITSFR41             0      0       0      42        0.0%
SFR41                0      0       0      42        0.0%
BITSFR42             0      0       0      43        0.0%
SFR42                0      0       0      43        0.0%
BITSFR43             0      0       0      44        0.0%
SFR43                0      0       0      44        0.0%
BITSFR44             0      0       0      45        0.0%
SFR44                0      0       0      45        0.0%
BITSFR45             0      0       0      46        0.0%
SFR45                0      0       0      46        0.0%
BITSFR46             0      0       0      47        0.0%
SFR46                0      0       0      47        0.0%
BITSFR47             0      0       0      48        0.0%
SFR47                0      0       0      48        0.0%
BITSFR48             0      0       0      49        0.0%
SFR48                0      0       0      49        0.0%
BITSFR49             0      0       0      50        0.0%
SFR49                0      0       0      50        0.0%
BITSFR50             0      0       0      51        0.0%
SFR50                0      0       0      51        0.0%
BITSFR51             0      0       0      52        0.0%
SFR51                0      0       0      52        0.0%
BITSFR52             0      0       0      53        0.0%
SFR52                0      0       0      53        0.0%
BITSFR53             0      0       0      54        0.0%
SFR53                0      0       0      54        0.0%
BITSFR54             0      0       0      55        0.0%
SFR54                0      0       0      55        0.0%
BITSFR55             0      0       0      56        0.0%
SFR55                0      0       0      56        0.0%
BITSFR56             0      0       0      57        0.0%
SFR56                0      0       0      57        0.0%
BITSFR57             0      0       0      58        0.0%
SFR57                0      0       0      58        0.0%
BITSFR58             0      0       0      59        0.0%
SFR58                0      0       0      59        0.0%
BITSFR59             0      0       0      60        0.0%
SFR59                0      0       0      60        0.0%
BITSFR60             0      0       0      61        0.0%
SFR60                0      0       0      61        0.0%
BITSFR61             0      0       0      62        0.0%
SFR61                0      0       0      62        0.0%
BITSFR62             0      0       0      63        0.0%
SFR62                0      0       0      63        0.0%
BITSFR63             0      0       0      64        0.0%
SFR63                0      0       0      64        0.0%


Microchip Technology PIC Macro Assembler V1.45 build -152302408 
Symbol Table                                                                                   Tue Oct 15 15:30:49 2019

                             __CFG_CP$OFF 0000                        main@picTemperature 0029  
                             __CFG_LVP$ON 0000                                       l331 00A3  
                                     l371 0174                                       u915 011E  
                                     u925 0128                                       u935 0130  
                                     u895 0114                           _timer1ReloadVal 0075  
                 __size_of_PMD_Initialize 0008                              __CFG_BORV$LO 0000  
                                     wreg 0009                             __CFG_BBEN$OFF 0000  
                            __CFG_ZCD$OFF 0000                          __end_of_I2C1_ISR 015F  
                                    l1623 007A                                      l1633 008A  
                                    l1641 0097                                      l1609 0052  
                                    l1619 0074                                      l1627 0081  
                                    l1581 0111                                      l1661 00B4  
                                    l1637 0090                                      l1583 011D  
                                    l1593 0138                                      l1657 00AE  
                                    l1649 00A5                                      l1589 012F  
                                    u1127 016F                                      _LATA 0018  
                                    _LATC 001A                                      _PMD0 0796  
                                    _PMD1 0797                                      _PMD2 0798  
                                    _PMD3 0799                                      _PMD4 079A  
                                    _PMD5 079B                                      i1l82 0026  
                                    _WPUA 1F39                                      _WPUC 1F4F  
                           __CFG_FCMEN$ON 0000                                      _main 0044  
                         _TMR0_StartTimer 0259                                      _time 0037  
                                    fsr0h 0005                                      fsr1h 0007  
                                    fsr0l 0004                                      indf1 0001  
                                    fsr1l 0006                                      btemp 007E  
                           __CFG_BOREN$ON 0000                                      start 002B  
              ??_TMR1_SetInterruptHandler 0022                             __CFG_CSWEN$ON 0000  
                           __CFG_MCLRE$ON 0000                       _I2C1_StatusCallback 00C2  
                 __end_of_TMR0_Initialize 01F8            __size_of_OSCILLATOR_Initialize 000A  
           __end_of_OSCILLATOR_Initialize 022D                                     ?_main 0070  
                           __CFG_WDTE$OFF 0000                           _TMR1_StartTimer 0256  
                                   _T1CLK 0211                                     _T1CON 020E  
                         __end_of___lwdiv 013D                                     i1l203 0151  
                                   i1l230 0107                                     i1l217 00C4  
                                   _OSCEN 0891                                     _TMR0H 059D  
                                   _TMR1H 020D                                     _TMR0L 059C  
                                   _TMR1L 020C                                     _TRISA 0012  
                                   _TRISC 0014         __size_of_TMR0_SetInterruptHandler 0006  
               ?_TMR0_SetInterruptHandler 0020                         ??_I2C1_Initialize 0020  
                        __end_of_TMR0_ISR 0223                          __end_of_TMR1_ISR 01CF  
                    ?_I2C1_StatusCallback 0070                             __CFG_WRTB$OFF 0000  
                           __CFG_WRTC$OFF 0000                   __end_of_TMR1_Initialize 01B7  
                                   pclath 000A                                     status 0003  
                                   wtemp0 007E                           _TMR1_WriteTimer 0207  
                         __initialization 002D                              __end_of_main 00C2  
                          __CFG_SAFEN$OFF 0000               ?_INTERRUPT_InterruptManager 0070  
                                  ??_main 0028                     ??_I2C1_StatusCallback 0070  
                 __end_of_TMR0_StartTimer 025C                                    _ADCON0 009D  
                                  _ADCON1 009E                                    _ADRESH 009C  
                                  _ADRESL 009B                                    _ANSELA 1F38  
                                  _ANSELC 1F4E                        __CFG_RSTOSC$HFINT1 0000  
                                  _T0CON0 059E                                    _T0CON1 059F  
                                  _T1GATE 0210                                    _T1GCON 020F  
                                  _RA0PPS 1F10                                    _RA1PPS 1F11  
                 TMR1_WriteTimer@timerVal 0070                                    i1l1231 00E8  
                                  i1l1215 00C7                                    i1l1217 00CC  
                                  i1l1227 00DE                                    i1l1251 0211  
                                  i1l1229 00E6                                    i1l1239 00F9  
                                  _ODCONA 1F3A                                    i1l1291 0155  
                                  i1l1371 0020                                    i1l1363 0017  
                                  _ODCONC 1F50                                    i1l1287 014F  
                          __CFG_WDTCCS$SC 0000                                    _OSCFRQ 0893  
                          __CFG_PWRTE$OFF 0000      __end_of_TMR1_DefaultInterruptHandler 025E  
   __size_of_TMR1_DefaultInterruptHandler 0001              _TMR1_DefaultInterruptHandler 025D  
                 __end_of_TMR1_StartTimer 0259                            __CFG_STVREN$ON 0000  
                               ??___lwdiv 0024                          ?_TMR0_Initialize 0070  
                               ?_I2C1_ISR 0070                            _PMD_Initialize 022D  
                            __pdataCOMMON 0079                  ADC_GetConversion@channel 0023  
TMR1_SetInterruptHandler@InterruptHandler 0020  TMR0_SetInterruptHandler@InterruptHandler 0020  
                 __end_of_TMR1_WriteTimer 0216                          ?_TMR1_Initialize 0070  
                       _SYSTEM_Initialize 01CF                   __end_of__initialization 0040  
                      ?_SYSTEM_Initialize 0070                            __pcstackCOMMON 0070  
                            __pidataBANK0 023D                       ??_SYSTEM_Initialize 0022  
                               ?_TMR0_ISR 0070                                 ?_TMR1_ISR 0070  
           ?_TMR1_DefaultInterruptHandler 0070                                ??_I2C1_ISR 0072  
                  __end_of_PMD_Initialize 0235                          ?_TMR0_StartTimer 0070  
               __end_of_SYSTEM_Initialize 01E4                                __pbssBANK0 0036  
                              __pnvCOMMON 0075                                __pmaintext 0044  
        __end_of_TMR0_SetInterruptHandler 0256                          ?_TMR1_StartTimer 0070  
                              ??_TMR0_ISR 0070                                ??_TMR1_ISR 0072  
                         __CFG_PPS1WAY$ON 0000                                __pintentry 0004  
                         _I2C1_Initialize 01F8                           ?_PMD_Initialize 0070  
                 __size_of_ADC_Initialize 0008         I2C1_StatusCallback@slaveWriteType 0077  
                                 _OSCCON1 088D                                   _OSCCON3 088F  
                                 _OSCSTAT 0890                                   _OSCTUNE 0892  
                                 _SSP1ADD 018D                                   _SLRCONA 1F3B  
                                 _SLRCONC 1F51                                   _SSP1BUF 018C  
                                 _SSP1MSK 018E                          ?_TMR1_WriteTimer 0070  
                                 ___lwdiv 0108                                   __ptext1 0108  
                                 __ptext2 0256                                   __ptext3 0259  
                                 __ptext4 01CF                                   __ptext5 019C  
                                 __ptext6 024A                                   __ptext7 01E4  
                                 __ptext8 0250                                   __ptext9 022D  
          ??_TMR1_DefaultInterruptHandler 0070                           __CFG_WRTAPP$OFF 0000  
                               _T1CONbits 020E                     _OSCILLATOR_Initialize 0223  
       __size_of_TMR1_SetInterruptHandler 0006                  ??_PIN_MANAGER_Initialize 0020  
               ?_TMR1_SetInterruptHandler 0020                           __CFG_WRTSAF$OFF 0000  
              __size_of_SYSTEM_Initialize 0015                      end_of_initialization 0040  
                                 init_ram 0244                                   initloop 0245  
        I2C1_StatusCallback@eepromAddress 0078                   __end_of_I2C1_Initialize 0207  
                   __CFG_WDTCPS$WDTCPS_31 0000               __end_of_I2C1_StatusCallback 0108  
                _TMR0_SetInterruptHandler 0250                         __size_of_I2C1_ISR 0022  
                        __CFG_FEXTOSC$OFF 0000                             __pidataCOMMON 025C  
                       __size_of_TMR0_ISR 000D                         __size_of_TMR1_ISR 0018  
                          _ADC_Initialize 0235                    ?_OSCILLATOR_Initialize 0070  
                     start_initialization 002D                  __size_of_TMR0_Initialize 0014  
         __size_of_PIN_MANAGER_Initialize 001E                          ?_I2C1_Initialize 0070  
                        __CFG_LPBOREN$OFF 0000                  __size_of_TMR1_Initialize 001B  
                        ??_PMD_Initialize 0020                          I2C1_ISR@i2c_data 0073  
                  __end_of_ADC_Initialize 023D                               __pdataBANK0 002B  
                           _EEPROM_Buffer 002B                               __pbssCOMMON 0077  
                               ___latbits 0001                             __pcstackBANK0 0020  
        I2C1_StatusCallback@i2c_bus_state 0071                     _TMR0_InterruptHandler 0034  
                               __pnvBANK0 0032                  __size_of_TMR0_StartTimer 0003  
                        ___lwdiv@dividend 0022                    _PIN_MANAGER_Initialize 017E  
        __end_of_TMR1_SetInterruptHandler 0250                                  ?___lwdiv 0020  
                         ?_ADC_Initialize 0070                                  _I2C1_ISR 013D  
            ??_INTERRUPT_InterruptManager 0074                  __size_of_TMR1_StartTimer 0003  
                        ___lwdiv@quotient 0026                         ??_TMR0_Initialize 0022  
                                _LATAbits 0018                                  _LATCbits 001A  
                                _PIE0bits 0716                                  _PIE3bits 0719  
                                _PIE4bits 071A                  __size_of_TMR1_WriteTimer 000F  
     __size_of_INTERRUPT_InterruptManager 0027                ??_TMR0_SetInterruptHandler 0022  
                                _PIR0bits 070C                                  _PIR3bits 070F  
                                _PIR4bits 0710                         __CFG_BBSIZE$BB512 0000  
                                _SSP1CON1 0190                                  _SSP1CON2 0191  
                                _SSP1CON3 0192                                  _TMR0_ISR 0216  
                                _TMR1_ISR 01B7                                  _SSP1STAT 018F  
                     _I2C1_slaveWriteData 0079                         ??_TMR1_Initialize 0022  
                              _ADCON0bits 009D                         _ADC_GetConversion 015F  
                 ??_OSCILLATOR_Initialize 0020                        ?_ADC_GetConversion 0020  
                       ??_TMR0_StartTimer 0020                          __size_of___lwdiv 0035  
                _TMR1_SetInterruptHandler 024A                     _TMR1_InterruptHandler 0032  
                     ??_ADC_GetConversion 0022                                _T0CON0bits 059E  
                         ___lwdiv@divisor 0020              __size_of_I2C1_StatusCallback 0046  
                         ___lwdiv@counter 0025                                  __ptext10 017E  
                                __ptext11 0223                                  __ptext20 013D  
                                __ptext12 01F8                                  __ptext21 00C2  
                                __ptext13 0235                                _T1GCONbits 020F  
                                __ptext14 015F                                  __ptext16 01B7  
                                __ptext17 0207                                  __ptext18 025D  
                                __ptext19 0216                              _SSP1CON1bits 0190  
                            _SSP1CON2bits 0191                         ??_TMR1_StartTimer 0020  
                           __size_of_main 007E              _TMR0_DefaultInterruptHandler 0000  
               __end_of_ADC_GetConversion 017E                      __CFG_WDTCWS$WDTCWS_7 0000  
                                int$flags 007E        __end_of_INTERRUPT_InterruptManager 002B  
              _INTERRUPT_InterruptManager 0004                              _SSP1STATbits 018F  
                       ??_TMR1_WriteTimer 0072                            _flashtaillight 0036  
                              _INTCONbits 000B                                  intlevel1 0000  
                 ?_PIN_MANAGER_Initialize 0070                         __CFG_CLKOUTEN$OFF 0000  
                        ??_ADC_Initialize 0020                  __size_of_I2C1_Initialize 000F  
                              _SSP1DATPPS 1EC6                                _SSP1CLKPPS 1EC5  
                         _TMR0_Initialize 01E4            __end_of_PIN_MANAGER_Initialize 019C  
              __size_of_ADC_GetConversion 001F                           _TMR1_Initialize 019C  
